
ocbot1.elf:     file format elf32-avr

Sections:
Idx Name          Size      VMA       LMA       File off  Algn
  0 .data         00000006  00800100  0000373e  000037b2  2**0
                  CONTENTS, ALLOC, LOAD, DATA
  1 .text         0000373e  00000000  00000000  00000074  2**1
                  CONTENTS, ALLOC, LOAD, READONLY, CODE
  2 .bss          000001bc  00800106  00003744  000037b8  2**0
                  ALLOC
  3 .stab         00000378  00000000  00000000  000037b8  2**2
                  CONTENTS, READONLY, DEBUGGING
  4 .stabstr      0000005f  00000000  00000000  00003b30  2**0
                  CONTENTS, READONLY, DEBUGGING
  5 .debug_aranges 00000100  00000000  00000000  00003b8f  2**0
                  CONTENTS, READONLY, DEBUGGING
  6 .debug_pubnames 00000b42  00000000  00000000  00003c8f  2**0
                  CONTENTS, READONLY, DEBUGGING
  7 .debug_info   00002b52  00000000  00000000  000047d1  2**0
                  CONTENTS, READONLY, DEBUGGING
  8 .debug_abbrev 00000806  00000000  00000000  00007323  2**0
                  CONTENTS, READONLY, DEBUGGING
  9 .debug_line   0000194f  00000000  00000000  00007b29  2**0
                  CONTENTS, READONLY, DEBUGGING
 10 .debug_frame  00000850  00000000  00000000  00009478  2**2
                  CONTENTS, READONLY, DEBUGGING
 11 .debug_str    00000058  00000000  00000000  00009cc8  2**0
                  CONTENTS, READONLY, DEBUGGING
Disassembly of section .text:

00000000 <__vectors>:
       0:	0c 94 b5 00 	jmp	0x16a	; 0x16a <__ctors_end>
       4:	0c 94 d2 00 	jmp	0x1a4	; 0x1a4 <__bad_interrupt>
       8:	0c 94 d2 00 	jmp	0x1a4	; 0x1a4 <__bad_interrupt>
       c:	0c 94 d2 00 	jmp	0x1a4	; 0x1a4 <__bad_interrupt>
      10:	0c 94 d2 00 	jmp	0x1a4	; 0x1a4 <__bad_interrupt>
      14:	0c 94 d2 00 	jmp	0x1a4	; 0x1a4 <__bad_interrupt>
      18:	0c 94 d2 00 	jmp	0x1a4	; 0x1a4 <__bad_interrupt>
      1c:	0c 94 ab 11 	jmp	0x2356	; 0x2356 <__vector_7>
      20:	0c 94 de 11 	jmp	0x23bc	; 0x23bc <__vector_8>
      24:	0c 94 cc 10 	jmp	0x2198	; 0x2198 <__vector_9>
      28:	0c 94 78 11 	jmp	0x22f0	; 0x22f0 <__vector_10>
      2c:	0c 94 12 11 	jmp	0x2224	; 0x2224 <__vector_11>
      30:	0c 94 45 11 	jmp	0x228a	; 0x228a <__vector_12>
      34:	0c 94 99 10 	jmp	0x2132	; 0x2132 <__vector_13>
      38:	0c 94 d2 00 	jmp	0x1a4	; 0x1a4 <__bad_interrupt>
      3c:	0c 94 d2 00 	jmp	0x1a4	; 0x1a4 <__bad_interrupt>
      40:	0c 94 40 10 	jmp	0x2080	; 0x2080 <__vector_16>
      44:	0c 94 d2 00 	jmp	0x1a4	; 0x1a4 <__bad_interrupt>
      48:	0c 94 e3 18 	jmp	0x31c6	; 0x31c6 <__vector_18>
      4c:	0c 94 d2 00 	jmp	0x1a4	; 0x1a4 <__bad_interrupt>
      50:	0c 94 9b 18 	jmp	0x3136	; 0x3136 <__vector_20>
      54:	0c 94 88 08 	jmp	0x1110	; 0x1110 <__vector_21>
      58:	0c 94 d2 00 	jmp	0x1a4	; 0x1a4 <__bad_interrupt>
      5c:	0c 94 d2 00 	jmp	0x1a4	; 0x1a4 <__bad_interrupt>
      60:	0c 94 d2 00 	jmp	0x1a4	; 0x1a4 <__bad_interrupt>
      64:	0c 94 d2 00 	jmp	0x1a4	; 0x1a4 <__bad_interrupt>

00000068 <__c.2075>:
      68:	63 6f 75 6e 74 3a 20 25 64 0d 0a 00                 count: %d...

00000074 <__c.2073>:
      74:	49 6e 69 74 69 61 6c 69 7a 61 74 69 6f 6e 20 43     Initialization C
      84:	6f 6d 70 6c 65 74 65 0d 0a 00                       omplete...

0000008e <__c.2096>:
      8e:	4d 6f 76 69 6e 67 20 4c 65 66 74 20 0d 0a 00        Moving Left ...

0000009d <__c.2094>:
      9d:	4d 6f 76 69 6e 67 20 72 69 67 68 74 20 0d 0a 00     Moving right ...

000000ad <__c.2092>:
      ad:	4d 6f 76 69 6e 67 20 53 74 72 61 69 67 68 74 20     Moving Straight 
      bd:	0d 0a 00                                            ...

000000c0 <__c.2090>:
      c0:	4d 69 64 64 6c 65 20 53 65 6e 73 6f 72 20 56 61     Middle Sensor Va
      d0:	6c 75 65 3a 20 25 64 0d 0a 00                       lue: %d...

000000da <__c.2088>:
      da:	52 69 67 68 74 20 53 65 6e 73 6f 72 20 56 61 6c     Right Sensor Val
      ea:	75 65 3a 20 25 64 0d 0a 00                          ue: %d...

000000f3 <__c.2086>:
      f3:	4c 65 66 74 20 53 65 6e 73 6f 72 20 56 61 6c 75     Left Sensor Valu
     103:	65 3a 20 25 64 0d 0a 00                             e: %d...

0000010b <__c.2160>:
     10b:	52 69 67 68 74 20 53 65 6e 73 6f 72 20 56 61 6c     Right Sensor Val
     11b:	75 65 3a 20 25 64 0d 0a 00                          ue: %d...

00000124 <__c.2158>:
     124:	4c 65 66 74 20 53 65 6e 73 6f 72 20 56 61 6c 75     Left Sensor Valu
     134:	65 3a 20 25 64 0d 0a 00                             e: %d...

0000013c <HexChars>:
     13c:	30 31 32 33 34 35 36 37 38 39 41 42 43 44 45 46     0123456789ABCDEF
	...

0000014d <TimerPrescaleFactor>:
     14d:	00 00 01 00 08 00 40 00 00 01 00 04                 ......@.....

00000159 <TimerRTCPrescaleFactor>:
     159:	00 00 01 00 08 00 20 00 40 00 80 00 00 01 00 04     ...... .@.......
	...

0000016a <__ctors_end>:
     16a:	11 24       	eor	r1, r1
     16c:	1f be       	out	0x3f, r1	; 63
     16e:	cf ef       	ldi	r28, 0xFF	; 255
     170:	d4 e0       	ldi	r29, 0x04	; 4
     172:	de bf       	out	0x3e, r29	; 62
     174:	cd bf       	out	0x3d, r28	; 61

00000176 <__do_copy_data>:
     176:	11 e0       	ldi	r17, 0x01	; 1
     178:	a0 e0       	ldi	r26, 0x00	; 0
     17a:	b1 e0       	ldi	r27, 0x01	; 1
     17c:	ee e3       	ldi	r30, 0x3E	; 62
     17e:	f7 e3       	ldi	r31, 0x37	; 55
     180:	02 c0       	rjmp	.+4      	; 0x186 <.do_copy_data_start>

00000182 <.do_copy_data_loop>:
     182:	05 90       	lpm	r0, Z+
     184:	0d 92       	st	X+, r0

00000186 <.do_copy_data_start>:
     186:	a6 30       	cpi	r26, 0x06	; 6
     188:	b1 07       	cpc	r27, r17
     18a:	d9 f7       	brne	.-10     	; 0x182 <.do_copy_data_loop>

0000018c <__do_clear_bss>:
     18c:	12 e0       	ldi	r17, 0x02	; 2
     18e:	a6 e0       	ldi	r26, 0x06	; 6
     190:	b1 e0       	ldi	r27, 0x01	; 1
     192:	01 c0       	rjmp	.+2      	; 0x196 <.do_clear_bss_start>

00000194 <.do_clear_bss_loop>:
     194:	1d 92       	st	X+, r1

00000196 <.do_clear_bss_start>:
     196:	a2 3c       	cpi	r26, 0xC2	; 194
     198:	b1 07       	cpc	r27, r17
     19a:	e1 f7       	brne	.-8      	; 0x194 <.do_clear_bss_loop>
     19c:	0e 94 5b 03 	call	0x6b6	; 0x6b6 <main>
     1a0:	0c 94 9e 1b 	jmp	0x373c	; 0x373c <_exit>

000001a4 <__bad_interrupt>:
     1a4:	0c 94 00 00 	jmp	0	; 0x0 <__vectors>

000001a8 <initialize_ports>:
     1a8:	cf 93       	push	r28
     1aa:	df 93       	push	r29
     1ac:	cd b7       	in	r28, 0x3d	; 61
     1ae:	de b7       	in	r29, 0x3e	; 62
     1b0:	aa e2       	ldi	r26, 0x2A	; 42
     1b2:	b0 e0       	ldi	r27, 0x00	; 0
     1b4:	ea e2       	ldi	r30, 0x2A	; 42
     1b6:	f0 e0       	ldi	r31, 0x00	; 0
     1b8:	80 81       	ld	r24, Z
     1ba:	80 64       	ori	r24, 0x40	; 64
     1bc:	8c 93       	st	X, r24
     1be:	aa e2       	ldi	r26, 0x2A	; 42
     1c0:	b0 e0       	ldi	r27, 0x00	; 0
     1c2:	ea e2       	ldi	r30, 0x2A	; 42
     1c4:	f0 e0       	ldi	r31, 0x00	; 0
     1c6:	80 81       	ld	r24, Z
     1c8:	80 68       	ori	r24, 0x80	; 128
     1ca:	8c 93       	st	X, r24
     1cc:	aa e2       	ldi	r26, 0x2A	; 42
     1ce:	b0 e0       	ldi	r27, 0x00	; 0
     1d0:	ea e2       	ldi	r30, 0x2A	; 42
     1d2:	f0 e0       	ldi	r31, 0x00	; 0
     1d4:	80 81       	ld	r24, Z
     1d6:	80 62       	ori	r24, 0x20	; 32
     1d8:	8c 93       	st	X, r24
     1da:	aa e2       	ldi	r26, 0x2A	; 42
     1dc:	b0 e0       	ldi	r27, 0x00	; 0
     1de:	ea e2       	ldi	r30, 0x2A	; 42
     1e0:	f0 e0       	ldi	r31, 0x00	; 0
     1e2:	80 81       	ld	r24, Z
     1e4:	80 61       	ori	r24, 0x10	; 16
     1e6:	8c 93       	st	X, r24
     1e8:	aa e2       	ldi	r26, 0x2A	; 42
     1ea:	b0 e0       	ldi	r27, 0x00	; 0
     1ec:	ea e2       	ldi	r30, 0x2A	; 42
     1ee:	f0 e0       	ldi	r31, 0x00	; 0
     1f0:	80 81       	ld	r24, Z
     1f2:	84 60       	ori	r24, 0x04	; 4
     1f4:	8c 93       	st	X, r24
     1f6:	aa e2       	ldi	r26, 0x2A	; 42
     1f8:	b0 e0       	ldi	r27, 0x00	; 0
     1fa:	ea e2       	ldi	r30, 0x2A	; 42
     1fc:	f0 e0       	ldi	r31, 0x00	; 0
     1fe:	80 81       	ld	r24, Z
     200:	88 60       	ori	r24, 0x08	; 8
     202:	8c 93       	st	X, r24
     204:	a7 e2       	ldi	r26, 0x27	; 39
     206:	b0 e0       	ldi	r27, 0x00	; 0
     208:	e7 e2       	ldi	r30, 0x27	; 39
     20a:	f0 e0       	ldi	r31, 0x00	; 0
     20c:	80 81       	ld	r24, Z
     20e:	8f 7d       	andi	r24, 0xDF	; 223
     210:	8c 93       	st	X, r24
     212:	a7 e2       	ldi	r26, 0x27	; 39
     214:	b0 e0       	ldi	r27, 0x00	; 0
     216:	e7 e2       	ldi	r30, 0x27	; 39
     218:	f0 e0       	ldi	r31, 0x00	; 0
     21a:	80 81       	ld	r24, Z
     21c:	8f 7e       	andi	r24, 0xEF	; 239
     21e:	8c 93       	st	X, r24
     220:	a7 e2       	ldi	r26, 0x27	; 39
     222:	b0 e0       	ldi	r27, 0x00	; 0
     224:	e7 e2       	ldi	r30, 0x27	; 39
     226:	f0 e0       	ldi	r31, 0x00	; 0
     228:	80 81       	ld	r24, Z
     22a:	87 7f       	andi	r24, 0xF7	; 247
     22c:	8c 93       	st	X, r24
     22e:	a4 e2       	ldi	r26, 0x24	; 36
     230:	b0 e0       	ldi	r27, 0x00	; 0
     232:	e4 e2       	ldi	r30, 0x24	; 36
     234:	f0 e0       	ldi	r31, 0x00	; 0
     236:	80 81       	ld	r24, Z
     238:	8f 7e       	andi	r24, 0xEF	; 239
     23a:	8c 93       	st	X, r24
     23c:	e5 e2       	ldi	r30, 0x25	; 37
     23e:	f0 e0       	ldi	r31, 0x00	; 0
     240:	80 81       	ld	r24, Z
     242:	e5 e2       	ldi	r30, 0x25	; 37
     244:	f0 e0       	ldi	r31, 0x00	; 0
     246:	80 e0       	ldi	r24, 0x00	; 0
     248:	80 83       	st	Z, r24
     24a:	e8 e2       	ldi	r30, 0x28	; 40
     24c:	f0 e0       	ldi	r31, 0x00	; 0
     24e:	80 81       	ld	r24, Z
     250:	e8 e2       	ldi	r30, 0x28	; 40
     252:	f0 e0       	ldi	r31, 0x00	; 0
     254:	80 e0       	ldi	r24, 0x00	; 0
     256:	80 83       	st	Z, r24
     258:	eb e2       	ldi	r30, 0x2B	; 43
     25a:	f0 e0       	ldi	r31, 0x00	; 0
     25c:	80 81       	ld	r24, Z
     25e:	eb e2       	ldi	r30, 0x2B	; 43
     260:	f0 e0       	ldi	r31, 0x00	; 0
     262:	80 e0       	ldi	r24, 0x00	; 0
     264:	80 83       	st	Z, r24
     266:	ab e2       	ldi	r26, 0x2B	; 43
     268:	b0 e0       	ldi	r27, 0x00	; 0
     26a:	eb e2       	ldi	r30, 0x2B	; 43
     26c:	f0 e0       	ldi	r31, 0x00	; 0
     26e:	80 81       	ld	r24, Z
     270:	80 64       	ori	r24, 0x40	; 64
     272:	8c 93       	st	X, r24
     274:	ab e2       	ldi	r26, 0x2B	; 43
     276:	b0 e0       	ldi	r27, 0x00	; 0
     278:	eb e2       	ldi	r30, 0x2B	; 43
     27a:	f0 e0       	ldi	r31, 0x00	; 0
     27c:	80 81       	ld	r24, Z
     27e:	80 68       	ori	r24, 0x80	; 128
     280:	8c 93       	st	X, r24
     282:	df 91       	pop	r29
     284:	cf 91       	pop	r28
     286:	08 95       	ret

00000288 <turn_on_led>:
     288:	cf 93       	push	r28
     28a:	df 93       	push	r29
     28c:	cd b7       	in	r28, 0x3d	; 61
     28e:	de b7       	in	r29, 0x3e	; 62
     290:	ab e2       	ldi	r26, 0x2B	; 43
     292:	b0 e0       	ldi	r27, 0x00	; 0
     294:	eb e2       	ldi	r30, 0x2B	; 43
     296:	f0 e0       	ldi	r31, 0x00	; 0
     298:	80 81       	ld	r24, Z
     29a:	8f 7e       	andi	r24, 0xEF	; 239
     29c:	8c 93       	st	X, r24
     29e:	df 91       	pop	r29
     2a0:	cf 91       	pop	r28
     2a2:	08 95       	ret

000002a4 <turn_off_led>:
     2a4:	cf 93       	push	r28
     2a6:	df 93       	push	r29
     2a8:	cd b7       	in	r28, 0x3d	; 61
     2aa:	de b7       	in	r29, 0x3e	; 62
     2ac:	ab e2       	ldi	r26, 0x2B	; 43
     2ae:	b0 e0       	ldi	r27, 0x00	; 0
     2b0:	eb e2       	ldi	r30, 0x2B	; 43
     2b2:	f0 e0       	ldi	r31, 0x00	; 0
     2b4:	80 81       	ld	r24, Z
     2b6:	80 61       	ori	r24, 0x10	; 16
     2b8:	8c 93       	st	X, r24
     2ba:	df 91       	pop	r29
     2bc:	cf 91       	pop	r28
     2be:	08 95       	ret

000002c0 <servo_left>:
     2c0:	cf 93       	push	r28
     2c2:	df 93       	push	r29
     2c4:	cd b7       	in	r28, 0x3d	; 61
     2c6:	de b7       	in	r29, 0x3e	; 62
     2c8:	22 97       	sbiw	r28, 0x02	; 2
     2ca:	0f b6       	in	r0, 0x3f	; 63
     2cc:	f8 94       	cli
     2ce:	de bf       	out	0x3e, r29	; 62
     2d0:	0f be       	out	0x3f, r0	; 63
     2d2:	cd bf       	out	0x3d, r28	; 61
     2d4:	9a 83       	std	Y+2, r25	; 0x02
     2d6:	89 83       	std	Y+1, r24	; 0x01
     2d8:	ab e2       	ldi	r26, 0x2B	; 43
     2da:	b0 e0       	ldi	r27, 0x00	; 0
     2dc:	eb e2       	ldi	r30, 0x2B	; 43
     2de:	f0 e0       	ldi	r31, 0x00	; 0
     2e0:	80 81       	ld	r24, Z
     2e2:	84 60       	ori	r24, 0x04	; 4
     2e4:	8c 93       	st	X, r24
     2e6:	89 81       	ldd	r24, Y+1	; 0x01
     2e8:	9a 81       	ldd	r25, Y+2	; 0x02
     2ea:	0e 94 78 02 	call	0x4f0	; 0x4f0 <delay_inms>
     2ee:	ab e2       	ldi	r26, 0x2B	; 43
     2f0:	b0 e0       	ldi	r27, 0x00	; 0
     2f2:	eb e2       	ldi	r30, 0x2B	; 43
     2f4:	f0 e0       	ldi	r31, 0x00	; 0
     2f6:	80 81       	ld	r24, Z
     2f8:	8b 7f       	andi	r24, 0xFB	; 251
     2fa:	8c 93       	st	X, r24
     2fc:	22 96       	adiw	r28, 0x02	; 2
     2fe:	0f b6       	in	r0, 0x3f	; 63
     300:	f8 94       	cli
     302:	de bf       	out	0x3e, r29	; 62
     304:	0f be       	out	0x3f, r0	; 63
     306:	cd bf       	out	0x3d, r28	; 61
     308:	df 91       	pop	r29
     30a:	cf 91       	pop	r28
     30c:	08 95       	ret

0000030e <servo_right>:
     30e:	cf 93       	push	r28
     310:	df 93       	push	r29
     312:	cd b7       	in	r28, 0x3d	; 61
     314:	de b7       	in	r29, 0x3e	; 62
     316:	22 97       	sbiw	r28, 0x02	; 2
     318:	0f b6       	in	r0, 0x3f	; 63
     31a:	f8 94       	cli
     31c:	de bf       	out	0x3e, r29	; 62
     31e:	0f be       	out	0x3f, r0	; 63
     320:	cd bf       	out	0x3d, r28	; 61
     322:	9a 83       	std	Y+2, r25	; 0x02
     324:	89 83       	std	Y+1, r24	; 0x01
     326:	ab e2       	ldi	r26, 0x2B	; 43
     328:	b0 e0       	ldi	r27, 0x00	; 0
     32a:	eb e2       	ldi	r30, 0x2B	; 43
     32c:	f0 e0       	ldi	r31, 0x00	; 0
     32e:	80 81       	ld	r24, Z
     330:	88 60       	ori	r24, 0x08	; 8
     332:	8c 93       	st	X, r24
     334:	89 81       	ldd	r24, Y+1	; 0x01
     336:	9a 81       	ldd	r25, Y+2	; 0x02
     338:	0e 94 78 02 	call	0x4f0	; 0x4f0 <delay_inms>
     33c:	ab e2       	ldi	r26, 0x2B	; 43
     33e:	b0 e0       	ldi	r27, 0x00	; 0
     340:	eb e2       	ldi	r30, 0x2B	; 43
     342:	f0 e0       	ldi	r31, 0x00	; 0
     344:	80 81       	ld	r24, Z
     346:	87 7f       	andi	r24, 0xF7	; 247
     348:	8c 93       	st	X, r24
     34a:	22 96       	adiw	r28, 0x02	; 2
     34c:	0f b6       	in	r0, 0x3f	; 63
     34e:	f8 94       	cli
     350:	de bf       	out	0x3e, r29	; 62
     352:	0f be       	out	0x3f, r0	; 63
     354:	cd bf       	out	0x3d, r28	; 61
     356:	df 91       	pop	r29
     358:	cf 91       	pop	r28
     35a:	08 95       	ret

0000035c <move_left>:
     35c:	cf 93       	push	r28
     35e:	df 93       	push	r29
     360:	cd b7       	in	r28, 0x3d	; 61
     362:	de b7       	in	r29, 0x3e	; 62
     364:	8c e6       	ldi	r24, 0x6C	; 108
     366:	90 e0       	ldi	r25, 0x00	; 0
     368:	0e 94 d5 02 	call	0x5aa	; 0x5aa <turn_led>
     36c:	64 e3       	ldi	r22, 0x34	; 52
     36e:	81 e0       	ldi	r24, 0x01	; 1
     370:	0e 94 f5 12 	call	0x25ea	; 0x25ea <servoSetPosition>
     374:	6f ef       	ldi	r22, 0xFF	; 255
     376:	80 e0       	ldi	r24, 0x00	; 0
     378:	0e 94 f5 12 	call	0x25ea	; 0x25ea <servoSetPosition>
     37c:	df 91       	pop	r29
     37e:	cf 91       	pop	r28
     380:	08 95       	ret

00000382 <move_right>:
     382:	cf 93       	push	r28
     384:	df 93       	push	r29
     386:	cd b7       	in	r28, 0x3d	; 61
     388:	de b7       	in	r29, 0x3e	; 62
     38a:	82 e7       	ldi	r24, 0x72	; 114
     38c:	90 e0       	ldi	r25, 0x00	; 0
     38e:	0e 94 d5 02 	call	0x5aa	; 0x5aa <turn_led>
     392:	6f ef       	ldi	r22, 0xFF	; 255
     394:	81 e0       	ldi	r24, 0x01	; 1
     396:	0e 94 f5 12 	call	0x25ea	; 0x25ea <servoSetPosition>
     39a:	64 e3       	ldi	r22, 0x34	; 52
     39c:	80 e0       	ldi	r24, 0x00	; 0
     39e:	0e 94 f5 12 	call	0x25ea	; 0x25ea <servoSetPosition>
     3a2:	df 91       	pop	r29
     3a4:	cf 91       	pop	r28
     3a6:	08 95       	ret

000003a8 <move_straight>:
     3a8:	cf 93       	push	r28
     3aa:	df 93       	push	r29
     3ac:	cd b7       	in	r28, 0x3d	; 61
     3ae:	de b7       	in	r29, 0x3e	; 62
     3b0:	83 e7       	ldi	r24, 0x73	; 115
     3b2:	90 e0       	ldi	r25, 0x00	; 0
     3b4:	0e 94 d5 02 	call	0x5aa	; 0x5aa <turn_led>
     3b8:	6f ef       	ldi	r22, 0xFF	; 255
     3ba:	81 e0       	ldi	r24, 0x01	; 1
     3bc:	0e 94 f5 12 	call	0x25ea	; 0x25ea <servoSetPosition>
     3c0:	6f ef       	ldi	r22, 0xFF	; 255
     3c2:	80 e0       	ldi	r24, 0x00	; 0
     3c4:	0e 94 f5 12 	call	0x25ea	; 0x25ea <servoSetPosition>
     3c8:	df 91       	pop	r29
     3ca:	cf 91       	pop	r28
     3cc:	08 95       	ret

000003ce <move_reverse>:
     3ce:	cf 93       	push	r28
     3d0:	df 93       	push	r29
     3d2:	cd b7       	in	r28, 0x3d	; 61
     3d4:	de b7       	in	r29, 0x3e	; 62
     3d6:	86 e7       	ldi	r24, 0x76	; 118
     3d8:	90 e0       	ldi	r25, 0x00	; 0
     3da:	0e 94 d5 02 	call	0x5aa	; 0x5aa <turn_led>
     3de:	80 e0       	ldi	r24, 0x00	; 0
     3e0:	90 e0       	ldi	r25, 0x00	; 0
     3e2:	0e 94 60 01 	call	0x2c0	; 0x2c0 <servo_left>
     3e6:	80 e0       	ldi	r24, 0x00	; 0
     3e8:	90 e0       	ldi	r25, 0x00	; 0
     3ea:	0e 94 87 01 	call	0x30e	; 0x30e <servo_right>
     3ee:	df 91       	pop	r29
     3f0:	cf 91       	pop	r28
     3f2:	08 95       	ret

000003f4 <hold_position>:
     3f4:	cf 93       	push	r28
     3f6:	df 93       	push	r29
     3f8:	cd b7       	in	r28, 0x3d	; 61
     3fa:	de b7       	in	r29, 0x3e	; 62
     3fc:	88 e6       	ldi	r24, 0x68	; 104
     3fe:	90 e0       	ldi	r25, 0x00	; 0
     400:	0e 94 d5 02 	call	0x5aa	; 0x5aa <turn_led>
     404:	84 e3       	ldi	r24, 0x34	; 52
     406:	90 e0       	ldi	r25, 0x00	; 0
     408:	0e 94 60 01 	call	0x2c0	; 0x2c0 <servo_left>
     40c:	84 e3       	ldi	r24, 0x34	; 52
     40e:	90 e0       	ldi	r25, 0x00	; 0
     410:	0e 94 87 01 	call	0x30e	; 0x30e <servo_right>
     414:	df 91       	pop	r29
     416:	cf 91       	pop	r28
     418:	08 95       	ret

0000041a <delay_cycles>:
     41a:	cf 93       	push	r28
     41c:	df 93       	push	r29
     41e:	cd b7       	in	r28, 0x3d	; 61
     420:	de b7       	in	r29, 0x3e	; 62
     422:	24 97       	sbiw	r28, 0x04	; 4
     424:	0f b6       	in	r0, 0x3f	; 63
     426:	f8 94       	cli
     428:	de bf       	out	0x3e, r29	; 62
     42a:	0f be       	out	0x3f, r0	; 63
     42c:	cd bf       	out	0x3d, r28	; 61
     42e:	69 83       	std	Y+1, r22	; 0x01
     430:	7a 83       	std	Y+2, r23	; 0x02
     432:	8b 83       	std	Y+3, r24	; 0x03
     434:	9c 83       	std	Y+4, r25	; 0x04
     436:	0b c0       	rjmp	.+22     	; 0x44e <delay_cycles+0x34>
     438:	89 81       	ldd	r24, Y+1	; 0x01
     43a:	9a 81       	ldd	r25, Y+2	; 0x02
     43c:	ab 81       	ldd	r26, Y+3	; 0x03
     43e:	bc 81       	ldd	r27, Y+4	; 0x04
     440:	01 97       	sbiw	r24, 0x01	; 1
     442:	a1 09       	sbc	r26, r1
     444:	b1 09       	sbc	r27, r1
     446:	89 83       	std	Y+1, r24	; 0x01
     448:	9a 83       	std	Y+2, r25	; 0x02
     44a:	ab 83       	std	Y+3, r26	; 0x03
     44c:	bc 83       	std	Y+4, r27	; 0x04
     44e:	89 81       	ldd	r24, Y+1	; 0x01
     450:	9a 81       	ldd	r25, Y+2	; 0x02
     452:	ab 81       	ldd	r26, Y+3	; 0x03
     454:	bc 81       	ldd	r27, Y+4	; 0x04
     456:	00 97       	sbiw	r24, 0x00	; 0
     458:	a1 05       	cpc	r26, r1
     45a:	b1 05       	cpc	r27, r1
     45c:	69 f7       	brne	.-38     	; 0x438 <delay_cycles+0x1e>
     45e:	24 96       	adiw	r28, 0x04	; 4
     460:	0f b6       	in	r0, 0x3f	; 63
     462:	f8 94       	cli
     464:	de bf       	out	0x3e, r29	; 62
     466:	0f be       	out	0x3f, r0	; 63
     468:	cd bf       	out	0x3d, r28	; 61
     46a:	df 91       	pop	r29
     46c:	cf 91       	pop	r28
     46e:	08 95       	ret

00000470 <initA2D>:
     470:	cf 93       	push	r28
     472:	df 93       	push	r29
     474:	cd b7       	in	r28, 0x3d	; 61
     476:	de b7       	in	r29, 0x3e	; 62
     478:	0e 94 58 07 	call	0xeb0	; 0xeb0 <a2dInit>
     47c:	85 e0       	ldi	r24, 0x05	; 5
     47e:	0e 94 9a 07 	call	0xf34	; 0xf34 <a2dSetPrescaler>
     482:	81 e0       	ldi	r24, 0x01	; 1
     484:	0e 94 b8 07 	call	0xf70	; 0xf70 <a2dSetReference>
     488:	df 91       	pop	r29
     48a:	cf 91       	pop	r28
     48c:	08 95       	ret

0000048e <initUART>:
     48e:	cf 93       	push	r28
     490:	df 93       	push	r29
     492:	cd b7       	in	r28, 0x3d	; 61
     494:	de b7       	in	r29, 0x3e	; 62
     496:	0e 94 fc 16 	call	0x2df8	; 0x2df8 <uartInit>
     49a:	60 e0       	ldi	r22, 0x00	; 0
     49c:	76 e9       	ldi	r23, 0x96	; 150
     49e:	80 e0       	ldi	r24, 0x00	; 0
     4a0:	90 e0       	ldi	r25, 0x00	; 0
     4a2:	0e 94 53 17 	call	0x2ea6	; 0x2ea6 <uartSetBaudRate>
     4a6:	8c ec       	ldi	r24, 0xCC	; 204
     4a8:	97 e1       	ldi	r25, 0x17	; 23
     4aa:	0e 94 9d 08 	call	0x113a	; 0x113a <rprintfInit>
     4ae:	df 91       	pop	r29
     4b0:	cf 91       	pop	r28
     4b2:	08 95       	ret

000004b4 <read_input8>:
     4b4:	cf 93       	push	r28
     4b6:	df 93       	push	r29
     4b8:	cd b7       	in	r28, 0x3d	; 61
     4ba:	de b7       	in	r29, 0x3e	; 62
     4bc:	24 97       	sbiw	r28, 0x04	; 4
     4be:	0f b6       	in	r0, 0x3f	; 63
     4c0:	f8 94       	cli
     4c2:	de bf       	out	0x3e, r29	; 62
     4c4:	0f be       	out	0x3f, r0	; 63
     4c6:	cd bf       	out	0x3d, r28	; 61
     4c8:	9a 83       	std	Y+2, r25	; 0x02
     4ca:	89 83       	std	Y+1, r24	; 0x01
     4cc:	7c 83       	std	Y+4, r23	; 0x04
     4ce:	6b 83       	std	Y+3, r22	; 0x03
     4d0:	8b 81       	ldd	r24, Y+3	; 0x03
     4d2:	0e 94 6b 08 	call	0x10d6	; 0x10d6 <a2dConvert8bit>
     4d6:	88 2f       	mov	r24, r24
     4d8:	90 e0       	ldi	r25, 0x00	; 0
     4da:	9a 83       	std	Y+2, r25	; 0x02
     4dc:	89 83       	std	Y+1, r24	; 0x01
     4de:	24 96       	adiw	r28, 0x04	; 4
     4e0:	0f b6       	in	r0, 0x3f	; 63
     4e2:	f8 94       	cli
     4e4:	de bf       	out	0x3e, r29	; 62
     4e6:	0f be       	out	0x3f, r0	; 63
     4e8:	cd bf       	out	0x3d, r28	; 61
     4ea:	df 91       	pop	r29
     4ec:	cf 91       	pop	r28
     4ee:	08 95       	ret

000004f0 <delay_inms>:
     4f0:	cf 93       	push	r28
     4f2:	df 93       	push	r29
     4f4:	cd b7       	in	r28, 0x3d	; 61
     4f6:	de b7       	in	r29, 0x3e	; 62
     4f8:	24 97       	sbiw	r28, 0x04	; 4
     4fa:	0f b6       	in	r0, 0x3f	; 63
     4fc:	f8 94       	cli
     4fe:	de bf       	out	0x3e, r29	; 62
     500:	0f be       	out	0x3f, r0	; 63
     502:	cd bf       	out	0x3d, r28	; 61
     504:	9c 83       	std	Y+4, r25	; 0x04
     506:	8b 83       	std	Y+3, r24	; 0x03
     508:	16 c0       	rjmp	.+44     	; 0x536 <__stack+0x37>
     50a:	1a 82       	std	Y+2, r1	; 0x02
     50c:	0c c0       	rjmp	.+24     	; 0x526 <__stack+0x27>
     50e:	19 82       	std	Y+1, r1	; 0x01
     510:	04 c0       	rjmp	.+8      	; 0x51a <__stack+0x1b>
     512:	00 00       	nop
     514:	89 81       	ldd	r24, Y+1	; 0x01
     516:	8f 5f       	subi	r24, 0xFF	; 255
     518:	89 83       	std	Y+1, r24	; 0x01
     51a:	89 81       	ldd	r24, Y+1	; 0x01
     51c:	86 30       	cpi	r24, 0x06	; 6
     51e:	c8 f3       	brcs	.-14     	; 0x512 <__stack+0x13>
     520:	8a 81       	ldd	r24, Y+2	; 0x02
     522:	8f 5f       	subi	r24, 0xFF	; 255
     524:	8a 83       	std	Y+2, r24	; 0x02
     526:	8a 81       	ldd	r24, Y+2	; 0x02
     528:	8a 35       	cpi	r24, 0x5A	; 90
     52a:	88 f3       	brcs	.-30     	; 0x50e <__stack+0xf>
     52c:	8b 81       	ldd	r24, Y+3	; 0x03
     52e:	9c 81       	ldd	r25, Y+4	; 0x04
     530:	01 97       	sbiw	r24, 0x01	; 1
     532:	9c 83       	std	Y+4, r25	; 0x04
     534:	8b 83       	std	Y+3, r24	; 0x03
     536:	8b 81       	ldd	r24, Y+3	; 0x03
     538:	9c 81       	ldd	r25, Y+4	; 0x04
     53a:	00 97       	sbiw	r24, 0x00	; 0
     53c:	31 f7       	brne	.-52     	; 0x50a <__stack+0xb>
     53e:	24 96       	adiw	r28, 0x04	; 4
     540:	0f b6       	in	r0, 0x3f	; 63
     542:	f8 94       	cli
     544:	de bf       	out	0x3e, r29	; 62
     546:	0f be       	out	0x3f, r0	; 63
     548:	cd bf       	out	0x3d, r28	; 61
     54a:	df 91       	pop	r29
     54c:	cf 91       	pop	r28
     54e:	08 95       	ret

00000550 <blink_n_times>:
     550:	cf 93       	push	r28
     552:	df 93       	push	r29
     554:	cd b7       	in	r28, 0x3d	; 61
     556:	de b7       	in	r29, 0x3e	; 62
     558:	22 97       	sbiw	r28, 0x02	; 2
     55a:	0f b6       	in	r0, 0x3f	; 63
     55c:	f8 94       	cli
     55e:	de bf       	out	0x3e, r29	; 62
     560:	0f be       	out	0x3f, r0	; 63
     562:	cd bf       	out	0x3d, r28	; 61
     564:	89 83       	std	Y+1, r24	; 0x01
     566:	0c c0       	rjmp	.+24     	; 0x580 <blink_n_times+0x30>
     568:	0e 94 44 01 	call	0x288	; 0x288 <turn_on_led>
     56c:	88 ec       	ldi	r24, 0xC8	; 200
     56e:	90 e0       	ldi	r25, 0x00	; 0
     570:	0e 94 78 02 	call	0x4f0	; 0x4f0 <delay_inms>
     574:	0e 94 52 01 	call	0x2a4	; 0x2a4 <turn_off_led>
     578:	88 ec       	ldi	r24, 0xC8	; 200
     57a:	90 e0       	ldi	r25, 0x00	; 0
     57c:	0e 94 78 02 	call	0x4f0	; 0x4f0 <delay_inms>
     580:	1a 82       	std	Y+2, r1	; 0x02
     582:	89 81       	ldd	r24, Y+1	; 0x01
     584:	18 16       	cp	r1, r24
     586:	14 f4       	brge	.+4      	; 0x58c <blink_n_times+0x3c>
     588:	81 e0       	ldi	r24, 0x01	; 1
     58a:	8a 83       	std	Y+2, r24	; 0x02
     58c:	89 81       	ldd	r24, Y+1	; 0x01
     58e:	81 50       	subi	r24, 0x01	; 1
     590:	89 83       	std	Y+1, r24	; 0x01
     592:	8a 81       	ldd	r24, Y+2	; 0x02
     594:	88 23       	and	r24, r24
     596:	41 f7       	brne	.-48     	; 0x568 <blink_n_times+0x18>
     598:	22 96       	adiw	r28, 0x02	; 2
     59a:	0f b6       	in	r0, 0x3f	; 63
     59c:	f8 94       	cli
     59e:	de bf       	out	0x3e, r29	; 62
     5a0:	0f be       	out	0x3f, r0	; 63
     5a2:	cd bf       	out	0x3d, r28	; 61
     5a4:	df 91       	pop	r29
     5a6:	cf 91       	pop	r28
     5a8:	08 95       	ret

000005aa <turn_led>:
     5aa:	cf 93       	push	r28
     5ac:	df 93       	push	r29
     5ae:	cd b7       	in	r28, 0x3d	; 61
     5b0:	de b7       	in	r29, 0x3e	; 62
     5b2:	23 97       	sbiw	r28, 0x03	; 3
     5b4:	0f b6       	in	r0, 0x3f	; 63
     5b6:	f8 94       	cli
     5b8:	de bf       	out	0x3e, r29	; 62
     5ba:	0f be       	out	0x3f, r0	; 63
     5bc:	cd bf       	out	0x3d, r28	; 61
     5be:	89 83       	std	Y+1, r24	; 0x01
     5c0:	89 81       	ldd	r24, Y+1	; 0x01
     5c2:	28 2f       	mov	r18, r24
     5c4:	30 e0       	ldi	r19, 0x00	; 0
     5c6:	3b 83       	std	Y+3, r19	; 0x03
     5c8:	2a 83       	std	Y+2, r18	; 0x02
     5ca:	8a 81       	ldd	r24, Y+2	; 0x02
     5cc:	9b 81       	ldd	r25, Y+3	; 0x03
     5ce:	82 37       	cpi	r24, 0x72	; 114
     5d0:	91 05       	cpc	r25, r1
     5d2:	59 f1       	breq	.+86     	; 0x62a <turn_led+0x80>
     5d4:	2a 81       	ldd	r18, Y+2	; 0x02
     5d6:	3b 81       	ldd	r19, Y+3	; 0x03
     5d8:	23 37       	cpi	r18, 0x73	; 115
     5da:	31 05       	cpc	r19, r1
     5dc:	64 f4       	brge	.+24     	; 0x5f6 <turn_led+0x4c>
     5de:	8a 81       	ldd	r24, Y+2	; 0x02
     5e0:	9b 81       	ldd	r25, Y+3	; 0x03
     5e2:	88 36       	cpi	r24, 0x68	; 104
     5e4:	91 05       	cpc	r25, r1
     5e6:	09 f4       	brne	.+2      	; 0x5ea <turn_led+0x40>
     5e8:	4f c0       	rjmp	.+158    	; 0x688 <turn_led+0xde>
     5ea:	2a 81       	ldd	r18, Y+2	; 0x02
     5ec:	3b 81       	ldd	r19, Y+3	; 0x03
     5ee:	2c 36       	cpi	r18, 0x6C	; 108
     5f0:	31 05       	cpc	r19, r1
     5f2:	61 f0       	breq	.+24     	; 0x60c <turn_led+0x62>
     5f4:	57 c0       	rjmp	.+174    	; 0x6a4 <turn_led+0xfa>
     5f6:	8a 81       	ldd	r24, Y+2	; 0x02
     5f8:	9b 81       	ldd	r25, Y+3	; 0x03
     5fa:	83 37       	cpi	r24, 0x73	; 115
     5fc:	91 05       	cpc	r25, r1
     5fe:	29 f1       	breq	.+74     	; 0x64a <turn_led+0xa0>
     600:	2a 81       	ldd	r18, Y+2	; 0x02
     602:	3b 81       	ldd	r19, Y+3	; 0x03
     604:	26 37       	cpi	r18, 0x76	; 118
     606:	31 05       	cpc	r19, r1
     608:	81 f1       	breq	.+96     	; 0x66a <turn_led+0xc0>
     60a:	4c c0       	rjmp	.+152    	; 0x6a4 <turn_led+0xfa>
     60c:	ab e2       	ldi	r26, 0x2B	; 43
     60e:	b0 e0       	ldi	r27, 0x00	; 0
     610:	eb e2       	ldi	r30, 0x2B	; 43
     612:	f0 e0       	ldi	r31, 0x00	; 0
     614:	80 81       	ld	r24, Z
     616:	8f 7b       	andi	r24, 0xBF	; 191
     618:	8c 93       	st	X, r24
     61a:	ab e2       	ldi	r26, 0x2B	; 43
     61c:	b0 e0       	ldi	r27, 0x00	; 0
     61e:	eb e2       	ldi	r30, 0x2B	; 43
     620:	f0 e0       	ldi	r31, 0x00	; 0
     622:	80 81       	ld	r24, Z
     624:	80 68       	ori	r24, 0x80	; 128
     626:	8c 93       	st	X, r24
     628:	3d c0       	rjmp	.+122    	; 0x6a4 <turn_led+0xfa>
     62a:	ab e2       	ldi	r26, 0x2B	; 43
     62c:	b0 e0       	ldi	r27, 0x00	; 0
     62e:	eb e2       	ldi	r30, 0x2B	; 43
     630:	f0 e0       	ldi	r31, 0x00	; 0
     632:	80 81       	ld	r24, Z
     634:	80 64       	ori	r24, 0x40	; 64
     636:	8c 93       	st	X, r24
     638:	ab e2       	ldi	r26, 0x2B	; 43
     63a:	b0 e0       	ldi	r27, 0x00	; 0
     63c:	eb e2       	ldi	r30, 0x2B	; 43
     63e:	f0 e0       	ldi	r31, 0x00	; 0
     640:	90 81       	ld	r25, Z
     642:	8f e7       	ldi	r24, 0x7F	; 127
     644:	89 23       	and	r24, r25
     646:	8c 93       	st	X, r24
     648:	2d c0       	rjmp	.+90     	; 0x6a4 <turn_led+0xfa>
     64a:	ab e2       	ldi	r26, 0x2B	; 43
     64c:	b0 e0       	ldi	r27, 0x00	; 0
     64e:	eb e2       	ldi	r30, 0x2B	; 43
     650:	f0 e0       	ldi	r31, 0x00	; 0
     652:	80 81       	ld	r24, Z
     654:	8f 7b       	andi	r24, 0xBF	; 191
     656:	8c 93       	st	X, r24
     658:	ab e2       	ldi	r26, 0x2B	; 43
     65a:	b0 e0       	ldi	r27, 0x00	; 0
     65c:	eb e2       	ldi	r30, 0x2B	; 43
     65e:	f0 e0       	ldi	r31, 0x00	; 0
     660:	90 81       	ld	r25, Z
     662:	8f e7       	ldi	r24, 0x7F	; 127
     664:	89 23       	and	r24, r25
     666:	8c 93       	st	X, r24
     668:	1d c0       	rjmp	.+58     	; 0x6a4 <turn_led+0xfa>
     66a:	ab e2       	ldi	r26, 0x2B	; 43
     66c:	b0 e0       	ldi	r27, 0x00	; 0
     66e:	eb e2       	ldi	r30, 0x2B	; 43
     670:	f0 e0       	ldi	r31, 0x00	; 0
     672:	80 81       	ld	r24, Z
     674:	80 64       	ori	r24, 0x40	; 64
     676:	8c 93       	st	X, r24
     678:	ab e2       	ldi	r26, 0x2B	; 43
     67a:	b0 e0       	ldi	r27, 0x00	; 0
     67c:	eb e2       	ldi	r30, 0x2B	; 43
     67e:	f0 e0       	ldi	r31, 0x00	; 0
     680:	80 81       	ld	r24, Z
     682:	80 68       	ori	r24, 0x80	; 128
     684:	8c 93       	st	X, r24
     686:	0e c0       	rjmp	.+28     	; 0x6a4 <turn_led+0xfa>
     688:	ab e2       	ldi	r26, 0x2B	; 43
     68a:	b0 e0       	ldi	r27, 0x00	; 0
     68c:	eb e2       	ldi	r30, 0x2B	; 43
     68e:	f0 e0       	ldi	r31, 0x00	; 0
     690:	80 81       	ld	r24, Z
     692:	80 64       	ori	r24, 0x40	; 64
     694:	8c 93       	st	X, r24
     696:	ab e2       	ldi	r26, 0x2B	; 43
     698:	b0 e0       	ldi	r27, 0x00	; 0
     69a:	eb e2       	ldi	r30, 0x2B	; 43
     69c:	f0 e0       	ldi	r31, 0x00	; 0
     69e:	80 81       	ld	r24, Z
     6a0:	80 68       	ori	r24, 0x80	; 128
     6a2:	8c 93       	st	X, r24
     6a4:	23 96       	adiw	r28, 0x03	; 3
     6a6:	0f b6       	in	r0, 0x3f	; 63
     6a8:	f8 94       	cli
     6aa:	de bf       	out	0x3e, r29	; 62
     6ac:	0f be       	out	0x3f, r0	; 63
     6ae:	cd bf       	out	0x3d, r28	; 61
     6b0:	df 91       	pop	r29
     6b2:	cf 91       	pop	r28
     6b4:	08 95       	ret

000006b6 <main>:
     6b6:	cf 93       	push	r28
     6b8:	df 93       	push	r29
     6ba:	cd b7       	in	r28, 0x3d	; 61
     6bc:	de b7       	in	r29, 0x3e	; 62
     6be:	0e 94 d4 00 	call	0x1a8	; 0x1a8 <initialize_ports>
     6c2:	0e 94 47 02 	call	0x48e	; 0x48e <initUART>
     6c6:	0e 94 75 0c 	call	0x18ea	; 0x18ea <timerInit>
     6ca:	0e 94 11 12 	call	0x2422	; 0x2422 <servoInit>
     6ce:	0e 94 38 02 	call	0x470	; 0x470 <initA2D>
     6d2:	84 e7       	ldi	r24, 0x74	; 116
     6d4:	90 e0       	ldi	r25, 0x00	; 0
     6d6:	9f 93       	push	r25
     6d8:	8f 93       	push	r24
     6da:	81 e0       	ldi	r24, 0x01	; 1
     6dc:	8f 93       	push	r24
     6de:	0e 94 4d 0b 	call	0x169a	; 0x169a <rprintf1RamRom>
     6e2:	0f 90       	pop	r0
     6e4:	0f 90       	pop	r0
     6e6:	0f 90       	pop	r0
     6e8:	0e 94 44 01 	call	0x288	; 0x288 <turn_on_led>
     6ec:	0e 94 26 05 	call	0xa4c	; 0xa4c <oc_caliberate>
     6f0:	80 91 00 01 	lds	r24, 0x0100
     6f4:	90 91 01 01 	lds	r25, 0x0101
     6f8:	28 e6       	ldi	r18, 0x68	; 104
     6fa:	30 e0       	ldi	r19, 0x00	; 0
     6fc:	9f 93       	push	r25
     6fe:	8f 93       	push	r24
     700:	3f 93       	push	r19
     702:	2f 93       	push	r18
     704:	81 e0       	ldi	r24, 0x01	; 1
     706:	8f 93       	push	r24
     708:	0e 94 4d 0b 	call	0x169a	; 0x169a <rprintf1RamRom>
     70c:	0f 90       	pop	r0
     70e:	0f 90       	pop	r0
     710:	0f 90       	pop	r0
     712:	0f 90       	pop	r0
     714:	0f 90       	pop	r0
     716:	80 91 04 01 	lds	r24, 0x0104
     71a:	90 91 05 01 	lds	r25, 0x0105
     71e:	01 96       	adiw	r24, 0x01	; 1
     720:	90 93 05 01 	sts	0x0105, r25
     724:	80 93 04 01 	sts	0x0104, r24
     728:	0e 94 97 03 	call	0x72e	; 0x72e <scan_3sensors>
     72c:	e1 cf       	rjmp	.-62     	; 0x6f0 <main+0x3a>

0000072e <scan_3sensors>:
     72e:	cf 93       	push	r28
     730:	df 93       	push	r29
     732:	cd b7       	in	r28, 0x3d	; 61
     734:	de b7       	in	r29, 0x3e	; 62
     736:	80 91 06 01 	lds	r24, 0x0106
     73a:	90 91 07 01 	lds	r25, 0x0107
     73e:	23 ef       	ldi	r18, 0xF3	; 243
     740:	30 e0       	ldi	r19, 0x00	; 0
     742:	9f 93       	push	r25
     744:	8f 93       	push	r24
     746:	3f 93       	push	r19
     748:	2f 93       	push	r18
     74a:	81 e0       	ldi	r24, 0x01	; 1
     74c:	8f 93       	push	r24
     74e:	0e 94 4d 0b 	call	0x169a	; 0x169a <rprintf1RamRom>
     752:	0f 90       	pop	r0
     754:	0f 90       	pop	r0
     756:	0f 90       	pop	r0
     758:	0f 90       	pop	r0
     75a:	0f 90       	pop	r0
     75c:	85 e0       	ldi	r24, 0x05	; 5
     75e:	0e 94 6b 08 	call	0x10d6	; 0x10d6 <a2dConvert8bit>
     762:	88 2f       	mov	r24, r24
     764:	90 e0       	ldi	r25, 0x00	; 0
     766:	90 93 07 01 	sts	0x0107, r25
     76a:	80 93 06 01 	sts	0x0106, r24
     76e:	80 91 08 01 	lds	r24, 0x0108
     772:	90 91 09 01 	lds	r25, 0x0109
     776:	2a ed       	ldi	r18, 0xDA	; 218
     778:	30 e0       	ldi	r19, 0x00	; 0
     77a:	9f 93       	push	r25
     77c:	8f 93       	push	r24
     77e:	3f 93       	push	r19
     780:	2f 93       	push	r18
     782:	81 e0       	ldi	r24, 0x01	; 1
     784:	8f 93       	push	r24
     786:	0e 94 4d 0b 	call	0x169a	; 0x169a <rprintf1RamRom>
     78a:	0f 90       	pop	r0
     78c:	0f 90       	pop	r0
     78e:	0f 90       	pop	r0
     790:	0f 90       	pop	r0
     792:	0f 90       	pop	r0
     794:	84 e0       	ldi	r24, 0x04	; 4
     796:	0e 94 6b 08 	call	0x10d6	; 0x10d6 <a2dConvert8bit>
     79a:	88 2f       	mov	r24, r24
     79c:	90 e0       	ldi	r25, 0x00	; 0
     79e:	90 93 09 01 	sts	0x0109, r25
     7a2:	80 93 08 01 	sts	0x0108, r24
     7a6:	80 91 0a 01 	lds	r24, 0x010A
     7aa:	90 91 0b 01 	lds	r25, 0x010B
     7ae:	20 ec       	ldi	r18, 0xC0	; 192
     7b0:	30 e0       	ldi	r19, 0x00	; 0
     7b2:	9f 93       	push	r25
     7b4:	8f 93       	push	r24
     7b6:	3f 93       	push	r19
     7b8:	2f 93       	push	r18
     7ba:	81 e0       	ldi	r24, 0x01	; 1
     7bc:	8f 93       	push	r24
     7be:	0e 94 4d 0b 	call	0x169a	; 0x169a <rprintf1RamRom>
     7c2:	0f 90       	pop	r0
     7c4:	0f 90       	pop	r0
     7c6:	0f 90       	pop	r0
     7c8:	0f 90       	pop	r0
     7ca:	0f 90       	pop	r0
     7cc:	83 e0       	ldi	r24, 0x03	; 3
     7ce:	0e 94 6b 08 	call	0x10d6	; 0x10d6 <a2dConvert8bit>
     7d2:	88 2f       	mov	r24, r24
     7d4:	90 e0       	ldi	r25, 0x00	; 0
     7d6:	90 93 0b 01 	sts	0x010B, r25
     7da:	80 93 0a 01 	sts	0x010A, r24
     7de:	20 91 0a 01 	lds	r18, 0x010A
     7e2:	30 91 0b 01 	lds	r19, 0x010B
     7e6:	80 91 10 01 	lds	r24, 0x0110
     7ea:	90 91 11 01 	lds	r25, 0x0111
     7ee:	28 1b       	sub	r18, r24
     7f0:	39 0b       	sbc	r19, r25
     7f2:	80 91 0c 01 	lds	r24, 0x010C
     7f6:	90 91 0d 01 	lds	r25, 0x010D
     7fa:	28 17       	cp	r18, r24
     7fc:	39 07       	cpc	r19, r25
     7fe:	0c f0       	brlt	.+2      	; 0x802 <scan_3sensors+0xd4>
     800:	58 c0       	rjmp	.+176    	; 0x8b2 <scan_3sensors+0x184>
     802:	20 91 0e 01 	lds	r18, 0x010E
     806:	30 91 0f 01 	lds	r19, 0x010F
     80a:	80 91 0a 01 	lds	r24, 0x010A
     80e:	90 91 0b 01 	lds	r25, 0x010B
     812:	28 1b       	sub	r18, r24
     814:	39 0b       	sbc	r19, r25
     816:	80 91 0c 01 	lds	r24, 0x010C
     81a:	90 91 0d 01 	lds	r25, 0x010D
     81e:	82 17       	cp	r24, r18
     820:	93 07       	cpc	r25, r19
     822:	0c f0       	brlt	.+2      	; 0x826 <scan_3sensors+0xf8>
     824:	46 c0       	rjmp	.+140    	; 0x8b2 <scan_3sensors+0x184>
     826:	20 91 0a 01 	lds	r18, 0x010A
     82a:	30 91 0b 01 	lds	r19, 0x010B
     82e:	80 91 06 01 	lds	r24, 0x0106
     832:	90 91 07 01 	lds	r25, 0x0107
     836:	28 17       	cp	r18, r24
     838:	39 07       	cpc	r19, r25
     83a:	dc f5       	brge	.+118    	; 0x8b2 <scan_3sensors+0x184>
     83c:	20 91 0a 01 	lds	r18, 0x010A
     840:	30 91 0b 01 	lds	r19, 0x010B
     844:	80 91 08 01 	lds	r24, 0x0108
     848:	90 91 09 01 	lds	r25, 0x0109
     84c:	28 17       	cp	r18, r24
     84e:	39 07       	cpc	r19, r25
     850:	84 f5       	brge	.+96     	; 0x8b2 <scan_3sensors+0x184>
     852:	20 91 08 01 	lds	r18, 0x0108
     856:	30 91 09 01 	lds	r19, 0x0109
     85a:	80 91 0a 01 	lds	r24, 0x010A
     85e:	90 91 0b 01 	lds	r25, 0x010B
     862:	28 1b       	sub	r18, r24
     864:	39 0b       	sbc	r19, r25
     866:	80 91 0c 01 	lds	r24, 0x010C
     86a:	90 91 0d 01 	lds	r25, 0x010D
     86e:	82 17       	cp	r24, r18
     870:	93 07       	cpc	r25, r19
     872:	fc f4       	brge	.+62     	; 0x8b2 <scan_3sensors+0x184>
     874:	20 91 06 01 	lds	r18, 0x0106
     878:	30 91 07 01 	lds	r19, 0x0107
     87c:	80 91 0a 01 	lds	r24, 0x010A
     880:	90 91 0b 01 	lds	r25, 0x010B
     884:	28 1b       	sub	r18, r24
     886:	39 0b       	sbc	r19, r25
     888:	80 91 0c 01 	lds	r24, 0x010C
     88c:	90 91 0d 01 	lds	r25, 0x010D
     890:	82 17       	cp	r24, r18
     892:	93 07       	cpc	r25, r19
     894:	74 f4       	brge	.+28     	; 0x8b2 <scan_3sensors+0x184>
     896:	8d ea       	ldi	r24, 0xAD	; 173
     898:	90 e0       	ldi	r25, 0x00	; 0
     89a:	9f 93       	push	r25
     89c:	8f 93       	push	r24
     89e:	81 e0       	ldi	r24, 0x01	; 1
     8a0:	8f 93       	push	r24
     8a2:	0e 94 4d 0b 	call	0x169a	; 0x169a <rprintf1RamRom>
     8a6:	0f 90       	pop	r0
     8a8:	0f 90       	pop	r0
     8aa:	0f 90       	pop	r0
     8ac:	0e 94 d4 01 	call	0x3a8	; 0x3a8 <move_straight>
     8b0:	56 c0       	rjmp	.+172    	; 0x95e <scan_3sensors+0x230>
     8b2:	20 91 06 01 	lds	r18, 0x0106
     8b6:	30 91 07 01 	lds	r19, 0x0107
     8ba:	80 91 0a 01 	lds	r24, 0x010A
     8be:	90 91 0b 01 	lds	r25, 0x010B
     8c2:	28 17       	cp	r18, r24
     8c4:	39 07       	cpc	r19, r25
     8c6:	8c f0       	brlt	.+34     	; 0x8ea <scan_3sensors+0x1bc>
     8c8:	20 91 06 01 	lds	r18, 0x0106
     8cc:	30 91 07 01 	lds	r19, 0x0107
     8d0:	80 91 0a 01 	lds	r24, 0x010A
     8d4:	90 91 0b 01 	lds	r25, 0x010B
     8d8:	28 1b       	sub	r18, r24
     8da:	39 0b       	sbc	r19, r25
     8dc:	80 91 0c 01 	lds	r24, 0x010C
     8e0:	90 91 0d 01 	lds	r25, 0x010D
     8e4:	28 17       	cp	r18, r24
     8e6:	39 07       	cpc	r19, r25
     8e8:	74 f4       	brge	.+28     	; 0x906 <scan_3sensors+0x1d8>
     8ea:	8d e9       	ldi	r24, 0x9D	; 157
     8ec:	90 e0       	ldi	r25, 0x00	; 0
     8ee:	9f 93       	push	r25
     8f0:	8f 93       	push	r24
     8f2:	81 e0       	ldi	r24, 0x01	; 1
     8f4:	8f 93       	push	r24
     8f6:	0e 94 4d 0b 	call	0x169a	; 0x169a <rprintf1RamRom>
     8fa:	0f 90       	pop	r0
     8fc:	0f 90       	pop	r0
     8fe:	0f 90       	pop	r0
     900:	0e 94 ae 01 	call	0x35c	; 0x35c <move_left>
     904:	2c c0       	rjmp	.+88     	; 0x95e <scan_3sensors+0x230>
     906:	20 91 08 01 	lds	r18, 0x0108
     90a:	30 91 09 01 	lds	r19, 0x0109
     90e:	80 91 0a 01 	lds	r24, 0x010A
     912:	90 91 0b 01 	lds	r25, 0x010B
     916:	28 17       	cp	r18, r24
     918:	39 07       	cpc	r19, r25
     91a:	8c f0       	brlt	.+34     	; 0x93e <scan_3sensors+0x210>
     91c:	20 91 08 01 	lds	r18, 0x0108
     920:	30 91 09 01 	lds	r19, 0x0109
     924:	80 91 0a 01 	lds	r24, 0x010A
     928:	90 91 0b 01 	lds	r25, 0x010B
     92c:	28 1b       	sub	r18, r24
     92e:	39 0b       	sbc	r19, r25
     930:	80 91 0c 01 	lds	r24, 0x010C
     934:	90 91 0d 01 	lds	r25, 0x010D
     938:	28 17       	cp	r18, r24
     93a:	39 07       	cpc	r19, r25
     93c:	74 f4       	brge	.+28     	; 0x95a <scan_3sensors+0x22c>
     93e:	8e e8       	ldi	r24, 0x8E	; 142
     940:	90 e0       	ldi	r25, 0x00	; 0
     942:	9f 93       	push	r25
     944:	8f 93       	push	r24
     946:	81 e0       	ldi	r24, 0x01	; 1
     948:	8f 93       	push	r24
     94a:	0e 94 4d 0b 	call	0x169a	; 0x169a <rprintf1RamRom>
     94e:	0f 90       	pop	r0
     950:	0f 90       	pop	r0
     952:	0f 90       	pop	r0
     954:	0e 94 c1 01 	call	0x382	; 0x382 <move_right>
     958:	02 c0       	rjmp	.+4      	; 0x95e <scan_3sensors+0x230>
     95a:	0e 94 fa 01 	call	0x3f4	; 0x3f4 <hold_position>
     95e:	df 91       	pop	r29
     960:	cf 91       	pop	r28
     962:	08 95       	ret

00000964 <scan_2sensors>:
     964:	cf 93       	push	r28
     966:	df 93       	push	r29
     968:	cd b7       	in	r28, 0x3d	; 61
     96a:	de b7       	in	r29, 0x3e	; 62
     96c:	80 91 06 01 	lds	r24, 0x0106
     970:	90 91 07 01 	lds	r25, 0x0107
     974:	24 e2       	ldi	r18, 0x24	; 36
     976:	31 e0       	ldi	r19, 0x01	; 1
     978:	9f 93       	push	r25
     97a:	8f 93       	push	r24
     97c:	3f 93       	push	r19
     97e:	2f 93       	push	r18
     980:	81 e0       	ldi	r24, 0x01	; 1
     982:	8f 93       	push	r24
     984:	0e 94 4d 0b 	call	0x169a	; 0x169a <rprintf1RamRom>
     988:	0f 90       	pop	r0
     98a:	0f 90       	pop	r0
     98c:	0f 90       	pop	r0
     98e:	0f 90       	pop	r0
     990:	0f 90       	pop	r0
     992:	85 e0       	ldi	r24, 0x05	; 5
     994:	0e 94 6b 08 	call	0x10d6	; 0x10d6 <a2dConvert8bit>
     998:	88 2f       	mov	r24, r24
     99a:	90 e0       	ldi	r25, 0x00	; 0
     99c:	90 93 07 01 	sts	0x0107, r25
     9a0:	80 93 06 01 	sts	0x0106, r24
     9a4:	80 91 08 01 	lds	r24, 0x0108
     9a8:	90 91 09 01 	lds	r25, 0x0109
     9ac:	2b e0       	ldi	r18, 0x0B	; 11
     9ae:	31 e0       	ldi	r19, 0x01	; 1
     9b0:	9f 93       	push	r25
     9b2:	8f 93       	push	r24
     9b4:	3f 93       	push	r19
     9b6:	2f 93       	push	r18
     9b8:	81 e0       	ldi	r24, 0x01	; 1
     9ba:	8f 93       	push	r24
     9bc:	0e 94 4d 0b 	call	0x169a	; 0x169a <rprintf1RamRom>
     9c0:	0f 90       	pop	r0
     9c2:	0f 90       	pop	r0
     9c4:	0f 90       	pop	r0
     9c6:	0f 90       	pop	r0
     9c8:	0f 90       	pop	r0
     9ca:	84 e0       	ldi	r24, 0x04	; 4
     9cc:	0e 94 6b 08 	call	0x10d6	; 0x10d6 <a2dConvert8bit>
     9d0:	88 2f       	mov	r24, r24
     9d2:	90 e0       	ldi	r25, 0x00	; 0
     9d4:	90 93 09 01 	sts	0x0109, r25
     9d8:	80 93 08 01 	sts	0x0108, r24
     9dc:	20 91 06 01 	lds	r18, 0x0106
     9e0:	30 91 07 01 	lds	r19, 0x0107
     9e4:	80 91 08 01 	lds	r24, 0x0108
     9e8:	90 91 09 01 	lds	r25, 0x0109
     9ec:	82 17       	cp	r24, r18
     9ee:	93 07       	cpc	r25, r19
     9f0:	a4 f4       	brge	.+40     	; 0xa1a <scan_2sensors+0xb6>
     9f2:	20 91 06 01 	lds	r18, 0x0106
     9f6:	30 91 07 01 	lds	r19, 0x0107
     9fa:	80 91 08 01 	lds	r24, 0x0108
     9fe:	90 91 09 01 	lds	r25, 0x0109
     a02:	28 1b       	sub	r18, r24
     a04:	39 0b       	sbc	r19, r25
     a06:	80 91 0c 01 	lds	r24, 0x010C
     a0a:	90 91 0d 01 	lds	r25, 0x010D
     a0e:	82 17       	cp	r24, r18
     a10:	93 07       	cpc	r25, r19
     a12:	1c f4       	brge	.+6      	; 0xa1a <scan_2sensors+0xb6>
     a14:	0e 94 ae 01 	call	0x35c	; 0x35c <move_left>
     a18:	16 c0       	rjmp	.+44     	; 0xa46 <scan_2sensors+0xe2>
     a1a:	20 91 08 01 	lds	r18, 0x0108
     a1e:	30 91 09 01 	lds	r19, 0x0109
     a22:	80 91 06 01 	lds	r24, 0x0106
     a26:	90 91 07 01 	lds	r25, 0x0107
     a2a:	82 17       	cp	r24, r18
     a2c:	93 07       	cpc	r25, r19
     a2e:	4c f4       	brge	.+18     	; 0xa42 <scan_2sensors+0xde>
     a30:	80 91 0c 01 	lds	r24, 0x010C
     a34:	90 91 0d 01 	lds	r25, 0x010D
     a38:	99 23       	and	r25, r25
     a3a:	1c f4       	brge	.+6      	; 0xa42 <scan_2sensors+0xde>
     a3c:	0e 94 c1 01 	call	0x382	; 0x382 <move_right>
     a40:	02 c0       	rjmp	.+4      	; 0xa46 <scan_2sensors+0xe2>
     a42:	0e 94 d4 01 	call	0x3a8	; 0x3a8 <move_straight>
     a46:	df 91       	pop	r29
     a48:	cf 91       	pop	r28
     a4a:	08 95       	ret

00000a4c <oc_caliberate>:
     a4c:	cf 93       	push	r28
     a4e:	df 93       	push	r29
     a50:	cd b7       	in	r28, 0x3d	; 61
     a52:	de b7       	in	r29, 0x3e	; 62
     a54:	81 e0       	ldi	r24, 0x01	; 1
     a56:	90 e0       	ldi	r25, 0x00	; 0
     a58:	90 93 8b 02 	sts	0x028B, r25
     a5c:	80 93 8a 02 	sts	0x028A, r24
     a60:	10 92 b3 01 	sts	0x01B3, r1
     a64:	10 92 b2 01 	sts	0x01B2, r1
     a68:	1f c0       	rjmp	.+62     	; 0xaa8 <oc_caliberate+0x5c>
     a6a:	80 91 b2 01 	lds	r24, 0x01B2
     a6e:	90 91 b3 01 	lds	r25, 0x01B3
     a72:	88 0f       	add	r24, r24
     a74:	99 1f       	adc	r25, r25
     a76:	fc 01       	movw	r30, r24
     a78:	ea 54       	subi	r30, 0x4A	; 74
     a7a:	fe 4f       	sbci	r31, 0xFE	; 254
     a7c:	11 82       	std	Z+1, r1	; 0x01
     a7e:	10 82       	st	Z, r1
     a80:	80 91 b2 01 	lds	r24, 0x01B2
     a84:	90 91 b3 01 	lds	r25, 0x01B3
     a88:	88 0f       	add	r24, r24
     a8a:	99 1f       	adc	r25, r25
     a8c:	fc 01       	movw	r30, r24
     a8e:	ea 5d       	subi	r30, 0xDA	; 218
     a90:	fd 4f       	sbci	r31, 0xFD	; 253
     a92:	11 82       	std	Z+1, r1	; 0x01
     a94:	10 82       	st	Z, r1
     a96:	80 91 b2 01 	lds	r24, 0x01B2
     a9a:	90 91 b3 01 	lds	r25, 0x01B3
     a9e:	01 96       	adiw	r24, 0x01	; 1
     aa0:	90 93 b3 01 	sts	0x01B3, r25
     aa4:	80 93 b2 01 	sts	0x01B2, r24
     aa8:	20 91 b2 01 	lds	r18, 0x01B2
     aac:	30 91 b3 01 	lds	r19, 0x01B3
     ab0:	80 91 02 01 	lds	r24, 0x0102
     ab4:	90 91 03 01 	lds	r25, 0x0103
     ab8:	28 17       	cp	r18, r24
     aba:	39 07       	cpc	r19, r25
     abc:	b4 f2       	brlt	.-84     	; 0xa6a <oc_caliberate+0x1e>
     abe:	10 92 1f 02 	sts	0x021F, r1
     ac2:	10 92 1e 02 	sts	0x021E, r1
     ac6:	1f c1       	rjmp	.+574    	; 0xd06 <oc_caliberate+0x2ba>
     ac8:	80 91 00 01 	lds	r24, 0x0100
     acc:	90 91 01 01 	lds	r25, 0x0101
     ad0:	01 96       	adiw	r24, 0x01	; 1
     ad2:	90 93 01 01 	sts	0x0101, r25
     ad6:	80 93 00 01 	sts	0x0100, r24
     ada:	0e 94 28 07 	call	0xe50	; 0xe50 <read_left>
     ade:	0e 94 38 07 	call	0xe70	; 0xe70 <read_right>
     ae2:	0e 94 48 07 	call	0xe90	; 0xe90 <read_middle>
     ae6:	80 91 8a 02 	lds	r24, 0x028A
     aea:	90 91 8b 02 	lds	r25, 0x028B
     aee:	81 30       	cpi	r24, 0x01	; 1
     af0:	91 05       	cpc	r25, r1
     af2:	81 f4       	brne	.+32     	; 0xb14 <oc_caliberate+0xc8>
     af4:	80 91 20 02 	lds	r24, 0x0220
     af8:	90 91 21 02 	lds	r25, 0x0221
     afc:	90 93 11 01 	sts	0x0111, r25
     b00:	80 93 10 01 	sts	0x0110, r24
     b04:	80 91 20 02 	lds	r24, 0x0220
     b08:	90 91 21 02 	lds	r25, 0x0221
     b0c:	90 93 0f 01 	sts	0x010F, r25
     b10:	80 93 0e 01 	sts	0x010E, r24
     b14:	10 92 b5 01 	sts	0x01B5, r1
     b18:	10 92 b4 01 	sts	0x01B4, r1
     b1c:	4b c0       	rjmp	.+150    	; 0xbb4 <oc_caliberate+0x168>
     b1e:	80 91 b4 01 	lds	r24, 0x01B4
     b22:	90 91 b5 01 	lds	r25, 0x01B5
     b26:	88 0f       	add	r24, r24
     b28:	99 1f       	adc	r25, r25
     b2a:	fc 01       	movw	r30, r24
     b2c:	e0 5e       	subi	r30, 0xE0	; 224
     b2e:	fd 4f       	sbci	r31, 0xFD	; 253
     b30:	20 81       	ld	r18, Z
     b32:	31 81       	ldd	r19, Z+1	; 0x01
     b34:	80 91 10 01 	lds	r24, 0x0110
     b38:	90 91 11 01 	lds	r25, 0x0111
     b3c:	28 17       	cp	r18, r24
     b3e:	39 07       	cpc	r19, r25
     b40:	7c f4       	brge	.+30     	; 0xb60 <oc_caliberate+0x114>
     b42:	80 91 b4 01 	lds	r24, 0x01B4
     b46:	90 91 b5 01 	lds	r25, 0x01B5
     b4a:	88 0f       	add	r24, r24
     b4c:	99 1f       	adc	r25, r25
     b4e:	fc 01       	movw	r30, r24
     b50:	e0 5e       	subi	r30, 0xE0	; 224
     b52:	fd 4f       	sbci	r31, 0xFD	; 253
     b54:	80 81       	ld	r24, Z
     b56:	91 81       	ldd	r25, Z+1	; 0x01
     b58:	90 93 11 01 	sts	0x0111, r25
     b5c:	80 93 10 01 	sts	0x0110, r24
     b60:	80 91 b4 01 	lds	r24, 0x01B4
     b64:	90 91 b5 01 	lds	r25, 0x01B5
     b68:	88 0f       	add	r24, r24
     b6a:	99 1f       	adc	r25, r25
     b6c:	fc 01       	movw	r30, r24
     b6e:	e0 5e       	subi	r30, 0xE0	; 224
     b70:	fd 4f       	sbci	r31, 0xFD	; 253
     b72:	20 81       	ld	r18, Z
     b74:	31 81       	ldd	r19, Z+1	; 0x01
     b76:	80 91 0e 01 	lds	r24, 0x010E
     b7a:	90 91 0f 01 	lds	r25, 0x010F
     b7e:	82 17       	cp	r24, r18
     b80:	93 07       	cpc	r25, r19
     b82:	7c f4       	brge	.+30     	; 0xba2 <oc_caliberate+0x156>
     b84:	80 91 b4 01 	lds	r24, 0x01B4
     b88:	90 91 b5 01 	lds	r25, 0x01B5
     b8c:	88 0f       	add	r24, r24
     b8e:	99 1f       	adc	r25, r25
     b90:	fc 01       	movw	r30, r24
     b92:	e0 5e       	subi	r30, 0xE0	; 224
     b94:	fd 4f       	sbci	r31, 0xFD	; 253
     b96:	80 81       	ld	r24, Z
     b98:	91 81       	ldd	r25, Z+1	; 0x01
     b9a:	90 93 0f 01 	sts	0x010F, r25
     b9e:	80 93 0e 01 	sts	0x010E, r24
     ba2:	80 91 b4 01 	lds	r24, 0x01B4
     ba6:	90 91 b5 01 	lds	r25, 0x01B5
     baa:	01 96       	adiw	r24, 0x01	; 1
     bac:	90 93 b5 01 	sts	0x01B5, r25
     bb0:	80 93 b4 01 	sts	0x01B4, r24
     bb4:	80 91 b4 01 	lds	r24, 0x01B4
     bb8:	90 91 b5 01 	lds	r25, 0x01B5
     bbc:	83 30       	cpi	r24, 0x03	; 3
     bbe:	91 05       	cpc	r25, r1
     bc0:	0c f4       	brge	.+2      	; 0xbc4 <oc_caliberate+0x178>
     bc2:	ad cf       	rjmp	.-166    	; 0xb1e <oc_caliberate+0xd2>
     bc4:	80 91 1e 02 	lds	r24, 0x021E
     bc8:	90 91 1f 02 	lds	r25, 0x021F
     bcc:	20 91 20 02 	lds	r18, 0x0220
     bd0:	30 91 21 02 	lds	r19, 0x0221
     bd4:	88 0f       	add	r24, r24
     bd6:	99 1f       	adc	r25, r25
     bd8:	fc 01       	movw	r30, r24
     bda:	ea 54       	subi	r30, 0x4A	; 74
     bdc:	fe 4f       	sbci	r31, 0xFE	; 254
     bde:	31 83       	std	Z+1, r19	; 0x01
     be0:	20 83       	st	Z, r18
     be2:	80 91 1e 02 	lds	r24, 0x021E
     be6:	90 91 1f 02 	lds	r25, 0x021F
     bea:	20 91 20 02 	lds	r18, 0x0220
     bee:	30 91 21 02 	lds	r19, 0x0221
     bf2:	88 0f       	add	r24, r24
     bf4:	99 1f       	adc	r25, r25
     bf6:	fc 01       	movw	r30, r24
     bf8:	ea 5d       	subi	r30, 0xDA	; 218
     bfa:	fd 4f       	sbci	r31, 0xFD	; 253
     bfc:	31 83       	std	Z+1, r19	; 0x01
     bfe:	20 83       	st	Z, r18
     c00:	10 92 1b 02 	sts	0x021B, r1
     c04:	10 92 1a 02 	sts	0x021A, r1
     c08:	69 c0       	rjmp	.+210    	; 0xcdc <oc_caliberate+0x290>
     c0a:	80 91 1a 02 	lds	r24, 0x021A
     c0e:	90 91 1b 02 	lds	r25, 0x021B
     c12:	88 0f       	add	r24, r24
     c14:	99 1f       	adc	r25, r25
     c16:	fc 01       	movw	r30, r24
     c18:	e0 5e       	subi	r30, 0xE0	; 224
     c1a:	fd 4f       	sbci	r31, 0xFD	; 253
     c1c:	20 81       	ld	r18, Z
     c1e:	31 81       	ldd	r19, Z+1	; 0x01
     c20:	80 91 1e 02 	lds	r24, 0x021E
     c24:	90 91 1f 02 	lds	r25, 0x021F
     c28:	88 0f       	add	r24, r24
     c2a:	99 1f       	adc	r25, r25
     c2c:	fc 01       	movw	r30, r24
     c2e:	ea 54       	subi	r30, 0x4A	; 74
     c30:	fe 4f       	sbci	r31, 0xFE	; 254
     c32:	80 81       	ld	r24, Z
     c34:	91 81       	ldd	r25, Z+1	; 0x01
     c36:	28 17       	cp	r18, r24
     c38:	39 07       	cpc	r19, r25
     c3a:	bc f4       	brge	.+46     	; 0xc6a <oc_caliberate+0x21e>
     c3c:	40 91 1e 02 	lds	r20, 0x021E
     c40:	50 91 1f 02 	lds	r21, 0x021F
     c44:	80 91 1a 02 	lds	r24, 0x021A
     c48:	90 91 1b 02 	lds	r25, 0x021B
     c4c:	88 0f       	add	r24, r24
     c4e:	99 1f       	adc	r25, r25
     c50:	fc 01       	movw	r30, r24
     c52:	e0 5e       	subi	r30, 0xE0	; 224
     c54:	fd 4f       	sbci	r31, 0xFD	; 253
     c56:	20 81       	ld	r18, Z
     c58:	31 81       	ldd	r19, Z+1	; 0x01
     c5a:	ca 01       	movw	r24, r20
     c5c:	88 0f       	add	r24, r24
     c5e:	99 1f       	adc	r25, r25
     c60:	fc 01       	movw	r30, r24
     c62:	ea 54       	subi	r30, 0x4A	; 74
     c64:	fe 4f       	sbci	r31, 0xFE	; 254
     c66:	31 83       	std	Z+1, r19	; 0x01
     c68:	20 83       	st	Z, r18
     c6a:	80 91 1a 02 	lds	r24, 0x021A
     c6e:	90 91 1b 02 	lds	r25, 0x021B
     c72:	88 0f       	add	r24, r24
     c74:	99 1f       	adc	r25, r25
     c76:	fc 01       	movw	r30, r24
     c78:	e0 5e       	subi	r30, 0xE0	; 224
     c7a:	fd 4f       	sbci	r31, 0xFD	; 253
     c7c:	20 81       	ld	r18, Z
     c7e:	31 81       	ldd	r19, Z+1	; 0x01
     c80:	80 91 1e 02 	lds	r24, 0x021E
     c84:	90 91 1f 02 	lds	r25, 0x021F
     c88:	88 0f       	add	r24, r24
     c8a:	99 1f       	adc	r25, r25
     c8c:	fc 01       	movw	r30, r24
     c8e:	ea 54       	subi	r30, 0x4A	; 74
     c90:	fe 4f       	sbci	r31, 0xFE	; 254
     c92:	80 81       	ld	r24, Z
     c94:	91 81       	ldd	r25, Z+1	; 0x01
     c96:	82 17       	cp	r24, r18
     c98:	93 07       	cpc	r25, r19
     c9a:	bc f4       	brge	.+46     	; 0xcca <oc_caliberate+0x27e>
     c9c:	40 91 1e 02 	lds	r20, 0x021E
     ca0:	50 91 1f 02 	lds	r21, 0x021F
     ca4:	80 91 1a 02 	lds	r24, 0x021A
     ca8:	90 91 1b 02 	lds	r25, 0x021B
     cac:	88 0f       	add	r24, r24
     cae:	99 1f       	adc	r25, r25
     cb0:	fc 01       	movw	r30, r24
     cb2:	e0 5e       	subi	r30, 0xE0	; 224
     cb4:	fd 4f       	sbci	r31, 0xFD	; 253
     cb6:	20 81       	ld	r18, Z
     cb8:	31 81       	ldd	r19, Z+1	; 0x01
     cba:	ca 01       	movw	r24, r20
     cbc:	88 0f       	add	r24, r24
     cbe:	99 1f       	adc	r25, r25
     cc0:	fc 01       	movw	r30, r24
     cc2:	ea 54       	subi	r30, 0x4A	; 74
     cc4:	fe 4f       	sbci	r31, 0xFE	; 254
     cc6:	31 83       	std	Z+1, r19	; 0x01
     cc8:	20 83       	st	Z, r18
     cca:	80 91 1a 02 	lds	r24, 0x021A
     cce:	90 91 1b 02 	lds	r25, 0x021B
     cd2:	01 96       	adiw	r24, 0x01	; 1
     cd4:	90 93 1b 02 	sts	0x021B, r25
     cd8:	80 93 1a 02 	sts	0x021A, r24
     cdc:	80 91 1a 02 	lds	r24, 0x021A
     ce0:	90 91 1b 02 	lds	r25, 0x021B
     ce4:	83 30       	cpi	r24, 0x03	; 3
     ce6:	91 05       	cpc	r25, r1
     ce8:	0c f4       	brge	.+2      	; 0xcec <oc_caliberate+0x2a0>
     cea:	8f cf       	rjmp	.-226    	; 0xc0a <oc_caliberate+0x1be>
     cec:	10 92 8b 02 	sts	0x028B, r1
     cf0:	10 92 8a 02 	sts	0x028A, r1
     cf4:	80 91 1e 02 	lds	r24, 0x021E
     cf8:	90 91 1f 02 	lds	r25, 0x021F
     cfc:	01 96       	adiw	r24, 0x01	; 1
     cfe:	90 93 1f 02 	sts	0x021F, r25
     d02:	80 93 1e 02 	sts	0x021E, r24
     d06:	20 91 1e 02 	lds	r18, 0x021E
     d0a:	30 91 1f 02 	lds	r19, 0x021F
     d0e:	80 91 02 01 	lds	r24, 0x0102
     d12:	90 91 03 01 	lds	r25, 0x0103
     d16:	28 17       	cp	r18, r24
     d18:	39 07       	cpc	r19, r25
     d1a:	0c f4       	brge	.+2      	; 0xd1e <oc_caliberate+0x2d2>
     d1c:	d5 ce       	rjmp	.-598    	; 0xac8 <oc_caliberate+0x7c>
     d1e:	0e 94 94 06 	call	0xd28	; 0xd28 <AverageLowHigh>
     d22:	df 91       	pop	r29
     d24:	cf 91       	pop	r28
     d26:	08 95       	ret

00000d28 <AverageLowHigh>:
     d28:	cf 93       	push	r28
     d2a:	df 93       	push	r29
     d2c:	cd b7       	in	r28, 0x3d	; 61
     d2e:	de b7       	in	r29, 0x3e	; 62
     d30:	24 97       	sbiw	r28, 0x04	; 4
     d32:	0f b6       	in	r0, 0x3f	; 63
     d34:	f8 94       	cli
     d36:	de bf       	out	0x3e, r29	; 62
     d38:	0f be       	out	0x3f, r0	; 63
     d3a:	cd bf       	out	0x3d, r28	; 61
     d3c:	1a 82       	std	Y+2, r1	; 0x02
     d3e:	19 82       	std	Y+1, r1	; 0x01
     d40:	2b c0       	rjmp	.+86     	; 0xd98 <AverageLowHigh+0x70>
     d42:	89 81       	ldd	r24, Y+1	; 0x01
     d44:	9a 81       	ldd	r25, Y+2	; 0x02
     d46:	88 0f       	add	r24, r24
     d48:	99 1f       	adc	r25, r25
     d4a:	fc 01       	movw	r30, r24
     d4c:	ea 54       	subi	r30, 0x4A	; 74
     d4e:	fe 4f       	sbci	r31, 0xFE	; 254
     d50:	20 81       	ld	r18, Z
     d52:	31 81       	ldd	r19, Z+1	; 0x01
     d54:	80 91 12 01 	lds	r24, 0x0112
     d58:	90 91 13 01 	lds	r25, 0x0113
     d5c:	82 0f       	add	r24, r18
     d5e:	93 1f       	adc	r25, r19
     d60:	90 93 13 01 	sts	0x0113, r25
     d64:	80 93 12 01 	sts	0x0112, r24
     d68:	89 81       	ldd	r24, Y+1	; 0x01
     d6a:	9a 81       	ldd	r25, Y+2	; 0x02
     d6c:	88 0f       	add	r24, r24
     d6e:	99 1f       	adc	r25, r25
     d70:	fc 01       	movw	r30, r24
     d72:	ea 5d       	subi	r30, 0xDA	; 218
     d74:	fd 4f       	sbci	r31, 0xFD	; 253
     d76:	20 81       	ld	r18, Z
     d78:	31 81       	ldd	r19, Z+1	; 0x01
     d7a:	80 91 14 01 	lds	r24, 0x0114
     d7e:	90 91 15 01 	lds	r25, 0x0115
     d82:	82 0f       	add	r24, r18
     d84:	93 1f       	adc	r25, r19
     d86:	90 93 15 01 	sts	0x0115, r25
     d8a:	80 93 14 01 	sts	0x0114, r24
     d8e:	89 81       	ldd	r24, Y+1	; 0x01
     d90:	9a 81       	ldd	r25, Y+2	; 0x02
     d92:	01 96       	adiw	r24, 0x01	; 1
     d94:	9a 83       	std	Y+2, r25	; 0x02
     d96:	89 83       	std	Y+1, r24	; 0x01
     d98:	20 91 02 01 	lds	r18, 0x0102
     d9c:	30 91 03 01 	lds	r19, 0x0103
     da0:	89 81       	ldd	r24, Y+1	; 0x01
     da2:	9a 81       	ldd	r25, Y+2	; 0x02
     da4:	82 17       	cp	r24, r18
     da6:	93 07       	cpc	r25, r19
     da8:	64 f2       	brlt	.-104    	; 0xd42 <AverageLowHigh+0x1a>
     daa:	80 91 12 01 	lds	r24, 0x0112
     dae:	90 91 13 01 	lds	r25, 0x0113
     db2:	20 91 02 01 	lds	r18, 0x0102
     db6:	30 91 03 01 	lds	r19, 0x0103
     dba:	b9 01       	movw	r22, r18
     dbc:	0e 94 4e 1b 	call	0x369c	; 0x369c <__divmodhi4>
     dc0:	cb 01       	movw	r24, r22
     dc2:	90 93 13 01 	sts	0x0113, r25
     dc6:	80 93 12 01 	sts	0x0112, r24
     dca:	80 91 14 01 	lds	r24, 0x0114
     dce:	90 91 15 01 	lds	r25, 0x0115
     dd2:	20 91 02 01 	lds	r18, 0x0102
     dd6:	30 91 03 01 	lds	r19, 0x0103
     dda:	b9 01       	movw	r22, r18
     ddc:	0e 94 4e 1b 	call	0x369c	; 0x369c <__divmodhi4>
     de0:	cb 01       	movw	r24, r22
     de2:	90 93 15 01 	sts	0x0115, r25
     de6:	80 93 14 01 	sts	0x0114, r24
     dea:	20 91 14 01 	lds	r18, 0x0114
     dee:	30 91 15 01 	lds	r19, 0x0115
     df2:	80 91 12 01 	lds	r24, 0x0112
     df6:	90 91 13 01 	lds	r25, 0x0113
     dfa:	a9 01       	movw	r20, r18
     dfc:	48 1b       	sub	r20, r24
     dfe:	59 0b       	sbc	r21, r25
     e00:	ca 01       	movw	r24, r20
     e02:	9c 83       	std	Y+4, r25	; 0x04
     e04:	8b 83       	std	Y+3, r24	; 0x03
     e06:	8b 81       	ldd	r24, Y+3	; 0x03
     e08:	9c 81       	ldd	r25, Y+4	; 0x04
     e0a:	99 23       	and	r25, r25
     e0c:	34 f4       	brge	.+12     	; 0xe1a <AverageLowHigh+0xf2>
     e0e:	4b 81       	ldd	r20, Y+3	; 0x03
     e10:	5c 81       	ldd	r21, Y+4	; 0x04
     e12:	4f 5f       	subi	r20, 0xFF	; 255
     e14:	5f 4f       	sbci	r21, 0xFF	; 255
     e16:	5c 83       	std	Y+4, r21	; 0x04
     e18:	4b 83       	std	Y+3, r20	; 0x03
     e1a:	8b 81       	ldd	r24, Y+3	; 0x03
     e1c:	9c 81       	ldd	r25, Y+4	; 0x04
     e1e:	95 95       	asr	r25
     e20:	87 95       	ror	r24
     e22:	90 93 0d 01 	sts	0x010D, r25
     e26:	80 93 0c 01 	sts	0x010C, r24
     e2a:	80 91 0c 01 	lds	r24, 0x010C
     e2e:	90 91 0d 01 	lds	r25, 0x010D
     e32:	99 23       	and	r25, r25
     e34:	24 f4       	brge	.+8      	; 0xe3e <AverageLowHigh+0x116>
     e36:	10 92 0d 01 	sts	0x010D, r1
     e3a:	10 92 0c 01 	sts	0x010C, r1
     e3e:	24 96       	adiw	r28, 0x04	; 4
     e40:	0f b6       	in	r0, 0x3f	; 63
     e42:	f8 94       	cli
     e44:	de bf       	out	0x3e, r29	; 62
     e46:	0f be       	out	0x3f, r0	; 63
     e48:	cd bf       	out	0x3d, r28	; 61
     e4a:	df 91       	pop	r29
     e4c:	cf 91       	pop	r28
     e4e:	08 95       	ret

00000e50 <read_left>:
     e50:	cf 93       	push	r28
     e52:	df 93       	push	r29
     e54:	cd b7       	in	r28, 0x3d	; 61
     e56:	de b7       	in	r29, 0x3e	; 62
     e58:	85 e0       	ldi	r24, 0x05	; 5
     e5a:	0e 94 6b 08 	call	0x10d6	; 0x10d6 <a2dConvert8bit>
     e5e:	88 2f       	mov	r24, r24
     e60:	90 e0       	ldi	r25, 0x00	; 0
     e62:	90 93 21 02 	sts	0x0221, r25
     e66:	80 93 20 02 	sts	0x0220, r24
     e6a:	df 91       	pop	r29
     e6c:	cf 91       	pop	r28
     e6e:	08 95       	ret

00000e70 <read_right>:
     e70:	cf 93       	push	r28
     e72:	df 93       	push	r29
     e74:	cd b7       	in	r28, 0x3d	; 61
     e76:	de b7       	in	r29, 0x3e	; 62
     e78:	84 e0       	ldi	r24, 0x04	; 4
     e7a:	0e 94 6b 08 	call	0x10d6	; 0x10d6 <a2dConvert8bit>
     e7e:	88 2f       	mov	r24, r24
     e80:	90 e0       	ldi	r25, 0x00	; 0
     e82:	90 93 23 02 	sts	0x0223, r25
     e86:	80 93 22 02 	sts	0x0222, r24
     e8a:	df 91       	pop	r29
     e8c:	cf 91       	pop	r28
     e8e:	08 95       	ret

00000e90 <read_middle>:
     e90:	cf 93       	push	r28
     e92:	df 93       	push	r29
     e94:	cd b7       	in	r28, 0x3d	; 61
     e96:	de b7       	in	r29, 0x3e	; 62
     e98:	83 e0       	ldi	r24, 0x03	; 3
     e9a:	0e 94 6b 08 	call	0x10d6	; 0x10d6 <a2dConvert8bit>
     e9e:	88 2f       	mov	r24, r24
     ea0:	90 e0       	ldi	r25, 0x00	; 0
     ea2:	90 93 25 02 	sts	0x0225, r25
     ea6:	80 93 24 02 	sts	0x0224, r24
     eaa:	df 91       	pop	r29
     eac:	cf 91       	pop	r28
     eae:	08 95       	ret

00000eb0 <a2dInit>:
     eb0:	cf 93       	push	r28
     eb2:	df 93       	push	r29
     eb4:	cd b7       	in	r28, 0x3d	; 61
     eb6:	de b7       	in	r29, 0x3e	; 62
     eb8:	aa e7       	ldi	r26, 0x7A	; 122
     eba:	b0 e0       	ldi	r27, 0x00	; 0
     ebc:	ea e7       	ldi	r30, 0x7A	; 122
     ebe:	f0 e0       	ldi	r31, 0x00	; 0
     ec0:	80 81       	ld	r24, Z
     ec2:	80 68       	ori	r24, 0x80	; 128
     ec4:	8c 93       	st	X, r24
     ec6:	aa e7       	ldi	r26, 0x7A	; 122
     ec8:	b0 e0       	ldi	r27, 0x00	; 0
     eca:	ea e7       	ldi	r30, 0x7A	; 122
     ecc:	f0 e0       	ldi	r31, 0x00	; 0
     ece:	80 81       	ld	r24, Z
     ed0:	8f 7d       	andi	r24, 0xDF	; 223
     ed2:	8c 93       	st	X, r24
     ed4:	86 e0       	ldi	r24, 0x06	; 6
     ed6:	0e 94 9a 07 	call	0xf34	; 0xf34 <a2dSetPrescaler>
     eda:	81 e0       	ldi	r24, 0x01	; 1
     edc:	0e 94 b8 07 	call	0xf70	; 0xf70 <a2dSetReference>
     ee0:	ac e7       	ldi	r26, 0x7C	; 124
     ee2:	b0 e0       	ldi	r27, 0x00	; 0
     ee4:	ec e7       	ldi	r30, 0x7C	; 124
     ee6:	f0 e0       	ldi	r31, 0x00	; 0
     ee8:	80 81       	ld	r24, Z
     eea:	8f 7d       	andi	r24, 0xDF	; 223
     eec:	8c 93       	st	X, r24
     eee:	aa e7       	ldi	r26, 0x7A	; 122
     ef0:	b0 e0       	ldi	r27, 0x00	; 0
     ef2:	ea e7       	ldi	r30, 0x7A	; 122
     ef4:	f0 e0       	ldi	r31, 0x00	; 0
     ef6:	80 81       	ld	r24, Z
     ef8:	88 60       	ori	r24, 0x08	; 8
     efa:	8c 93       	st	X, r24
     efc:	10 92 8c 02 	sts	0x028C, r1
     f00:	78 94       	sei
     f02:	df 91       	pop	r29
     f04:	cf 91       	pop	r28
     f06:	08 95       	ret

00000f08 <a2dOff>:
     f08:	cf 93       	push	r28
     f0a:	df 93       	push	r29
     f0c:	cd b7       	in	r28, 0x3d	; 61
     f0e:	de b7       	in	r29, 0x3e	; 62
     f10:	aa e7       	ldi	r26, 0x7A	; 122
     f12:	b0 e0       	ldi	r27, 0x00	; 0
     f14:	ea e7       	ldi	r30, 0x7A	; 122
     f16:	f0 e0       	ldi	r31, 0x00	; 0
     f18:	80 81       	ld	r24, Z
     f1a:	87 7f       	andi	r24, 0xF7	; 247
     f1c:	8c 93       	st	X, r24
     f1e:	aa e7       	ldi	r26, 0x7A	; 122
     f20:	b0 e0       	ldi	r27, 0x00	; 0
     f22:	ea e7       	ldi	r30, 0x7A	; 122
     f24:	f0 e0       	ldi	r31, 0x00	; 0
     f26:	90 81       	ld	r25, Z
     f28:	8f e7       	ldi	r24, 0x7F	; 127
     f2a:	89 23       	and	r24, r25
     f2c:	8c 93       	st	X, r24
     f2e:	df 91       	pop	r29
     f30:	cf 91       	pop	r28
     f32:	08 95       	ret

00000f34 <a2dSetPrescaler>:
     f34:	cf 93       	push	r28
     f36:	df 93       	push	r29
     f38:	cd b7       	in	r28, 0x3d	; 61
     f3a:	de b7       	in	r29, 0x3e	; 62
     f3c:	21 97       	sbiw	r28, 0x01	; 1
     f3e:	0f b6       	in	r0, 0x3f	; 63
     f40:	f8 94       	cli
     f42:	de bf       	out	0x3e, r29	; 62
     f44:	0f be       	out	0x3f, r0	; 63
     f46:	cd bf       	out	0x3d, r28	; 61
     f48:	89 83       	std	Y+1, r24	; 0x01
     f4a:	aa e7       	ldi	r26, 0x7A	; 122
     f4c:	b0 e0       	ldi	r27, 0x00	; 0
     f4e:	ea e7       	ldi	r30, 0x7A	; 122
     f50:	f0 e0       	ldi	r31, 0x00	; 0
     f52:	80 81       	ld	r24, Z
     f54:	98 2f       	mov	r25, r24
     f56:	98 7f       	andi	r25, 0xF8	; 248
     f58:	89 81       	ldd	r24, Y+1	; 0x01
     f5a:	89 2b       	or	r24, r25
     f5c:	8c 93       	st	X, r24
     f5e:	21 96       	adiw	r28, 0x01	; 1
     f60:	0f b6       	in	r0, 0x3f	; 63
     f62:	f8 94       	cli
     f64:	de bf       	out	0x3e, r29	; 62
     f66:	0f be       	out	0x3f, r0	; 63
     f68:	cd bf       	out	0x3d, r28	; 61
     f6a:	df 91       	pop	r29
     f6c:	cf 91       	pop	r28
     f6e:	08 95       	ret

00000f70 <a2dSetReference>:
     f70:	cf 93       	push	r28
     f72:	df 93       	push	r29
     f74:	cd b7       	in	r28, 0x3d	; 61
     f76:	de b7       	in	r29, 0x3e	; 62
     f78:	21 97       	sbiw	r28, 0x01	; 1
     f7a:	0f b6       	in	r0, 0x3f	; 63
     f7c:	f8 94       	cli
     f7e:	de bf       	out	0x3e, r29	; 62
     f80:	0f be       	out	0x3f, r0	; 63
     f82:	cd bf       	out	0x3d, r28	; 61
     f84:	89 83       	std	Y+1, r24	; 0x01
     f86:	ac e7       	ldi	r26, 0x7C	; 124
     f88:	b0 e0       	ldi	r27, 0x00	; 0
     f8a:	ec e7       	ldi	r30, 0x7C	; 124
     f8c:	f0 e0       	ldi	r31, 0x00	; 0
     f8e:	80 81       	ld	r24, Z
     f90:	98 2f       	mov	r25, r24
     f92:	8f e3       	ldi	r24, 0x3F	; 63
     f94:	29 2f       	mov	r18, r25
     f96:	28 23       	and	r18, r24
     f98:	89 81       	ldd	r24, Y+1	; 0x01
     f9a:	88 2f       	mov	r24, r24
     f9c:	90 e0       	ldi	r25, 0x00	; 0
     f9e:	00 24       	eor	r0, r0
     fa0:	96 95       	lsr	r25
     fa2:	87 95       	ror	r24
     fa4:	07 94       	ror	r0
     fa6:	96 95       	lsr	r25
     fa8:	87 95       	ror	r24
     faa:	07 94       	ror	r0
     fac:	98 2f       	mov	r25, r24
     fae:	80 2d       	mov	r24, r0
     fb0:	82 2b       	or	r24, r18
     fb2:	8c 93       	st	X, r24
     fb4:	21 96       	adiw	r28, 0x01	; 1
     fb6:	0f b6       	in	r0, 0x3f	; 63
     fb8:	f8 94       	cli
     fba:	de bf       	out	0x3e, r29	; 62
     fbc:	0f be       	out	0x3f, r0	; 63
     fbe:	cd bf       	out	0x3d, r28	; 61
     fc0:	df 91       	pop	r29
     fc2:	cf 91       	pop	r28
     fc4:	08 95       	ret

00000fc6 <a2dSetChannel>:
     fc6:	cf 93       	push	r28
     fc8:	df 93       	push	r29
     fca:	cd b7       	in	r28, 0x3d	; 61
     fcc:	de b7       	in	r29, 0x3e	; 62
     fce:	21 97       	sbiw	r28, 0x01	; 1
     fd0:	0f b6       	in	r0, 0x3f	; 63
     fd2:	f8 94       	cli
     fd4:	de bf       	out	0x3e, r29	; 62
     fd6:	0f be       	out	0x3f, r0	; 63
     fd8:	cd bf       	out	0x3d, r28	; 61
     fda:	89 83       	std	Y+1, r24	; 0x01
     fdc:	ac e7       	ldi	r26, 0x7C	; 124
     fde:	b0 e0       	ldi	r27, 0x00	; 0
     fe0:	ec e7       	ldi	r30, 0x7C	; 124
     fe2:	f0 e0       	ldi	r31, 0x00	; 0
     fe4:	80 81       	ld	r24, Z
     fe6:	98 2f       	mov	r25, r24
     fe8:	90 7e       	andi	r25, 0xE0	; 224
     fea:	89 81       	ldd	r24, Y+1	; 0x01
     fec:	8f 71       	andi	r24, 0x1F	; 31
     fee:	89 2b       	or	r24, r25
     ff0:	8c 93       	st	X, r24
     ff2:	21 96       	adiw	r28, 0x01	; 1
     ff4:	0f b6       	in	r0, 0x3f	; 63
     ff6:	f8 94       	cli
     ff8:	de bf       	out	0x3e, r29	; 62
     ffa:	0f be       	out	0x3f, r0	; 63
     ffc:	cd bf       	out	0x3d, r28	; 61
     ffe:	df 91       	pop	r29
    1000:	cf 91       	pop	r28
    1002:	08 95       	ret

00001004 <a2dStartConvert>:
    1004:	cf 93       	push	r28
    1006:	df 93       	push	r29
    1008:	cd b7       	in	r28, 0x3d	; 61
    100a:	de b7       	in	r29, 0x3e	; 62
    100c:	aa e7       	ldi	r26, 0x7A	; 122
    100e:	b0 e0       	ldi	r27, 0x00	; 0
    1010:	ea e7       	ldi	r30, 0x7A	; 122
    1012:	f0 e0       	ldi	r31, 0x00	; 0
    1014:	80 81       	ld	r24, Z
    1016:	80 61       	ori	r24, 0x10	; 16
    1018:	8c 93       	st	X, r24
    101a:	aa e7       	ldi	r26, 0x7A	; 122
    101c:	b0 e0       	ldi	r27, 0x00	; 0
    101e:	ea e7       	ldi	r30, 0x7A	; 122
    1020:	f0 e0       	ldi	r31, 0x00	; 0
    1022:	80 81       	ld	r24, Z
    1024:	80 64       	ori	r24, 0x40	; 64
    1026:	8c 93       	st	X, r24
    1028:	df 91       	pop	r29
    102a:	cf 91       	pop	r28
    102c:	08 95       	ret

0000102e <a2dIsComplete>:
    102e:	cf 93       	push	r28
    1030:	df 93       	push	r29
    1032:	cd b7       	in	r28, 0x3d	; 61
    1034:	de b7       	in	r29, 0x3e	; 62
    1036:	ea e7       	ldi	r30, 0x7A	; 122
    1038:	f0 e0       	ldi	r31, 0x00	; 0
    103a:	80 81       	ld	r24, Z
    103c:	88 2f       	mov	r24, r24
    103e:	90 e0       	ldi	r25, 0x00	; 0
    1040:	80 74       	andi	r24, 0x40	; 64
    1042:	90 70       	andi	r25, 0x00	; 0
    1044:	df 91       	pop	r29
    1046:	cf 91       	pop	r28
    1048:	08 95       	ret

0000104a <a2dConvert10bit>:
    104a:	cf 93       	push	r28
    104c:	df 93       	push	r29
    104e:	cd b7       	in	r28, 0x3d	; 61
    1050:	de b7       	in	r29, 0x3e	; 62
    1052:	21 97       	sbiw	r28, 0x01	; 1
    1054:	0f b6       	in	r0, 0x3f	; 63
    1056:	f8 94       	cli
    1058:	de bf       	out	0x3e, r29	; 62
    105a:	0f be       	out	0x3f, r0	; 63
    105c:	cd bf       	out	0x3d, r28	; 61
    105e:	89 83       	std	Y+1, r24	; 0x01
    1060:	10 92 8c 02 	sts	0x028C, r1
    1064:	ac e7       	ldi	r26, 0x7C	; 124
    1066:	b0 e0       	ldi	r27, 0x00	; 0
    1068:	ec e7       	ldi	r30, 0x7C	; 124
    106a:	f0 e0       	ldi	r31, 0x00	; 0
    106c:	80 81       	ld	r24, Z
    106e:	98 2f       	mov	r25, r24
    1070:	90 7e       	andi	r25, 0xE0	; 224
    1072:	89 81       	ldd	r24, Y+1	; 0x01
    1074:	8f 71       	andi	r24, 0x1F	; 31
    1076:	89 2b       	or	r24, r25
    1078:	8c 93       	st	X, r24
    107a:	aa e7       	ldi	r26, 0x7A	; 122
    107c:	b0 e0       	ldi	r27, 0x00	; 0
    107e:	ea e7       	ldi	r30, 0x7A	; 122
    1080:	f0 e0       	ldi	r31, 0x00	; 0
    1082:	80 81       	ld	r24, Z
    1084:	80 61       	ori	r24, 0x10	; 16
    1086:	8c 93       	st	X, r24
    1088:	aa e7       	ldi	r26, 0x7A	; 122
    108a:	b0 e0       	ldi	r27, 0x00	; 0
    108c:	ea e7       	ldi	r30, 0x7A	; 122
    108e:	f0 e0       	ldi	r31, 0x00	; 0
    1090:	80 81       	ld	r24, Z
    1092:	80 64       	ori	r24, 0x40	; 64
    1094:	8c 93       	st	X, r24
    1096:	ea e7       	ldi	r30, 0x7A	; 122
    1098:	f0 e0       	ldi	r31, 0x00	; 0
    109a:	80 81       	ld	r24, Z
    109c:	88 2f       	mov	r24, r24
    109e:	90 e0       	ldi	r25, 0x00	; 0
    10a0:	80 74       	andi	r24, 0x40	; 64
    10a2:	90 70       	andi	r25, 0x00	; 0
    10a4:	00 97       	sbiw	r24, 0x00	; 0
    10a6:	b9 f7       	brne	.-18     	; 0x1096 <a2dConvert10bit+0x4c>
    10a8:	e8 e7       	ldi	r30, 0x78	; 120
    10aa:	f0 e0       	ldi	r31, 0x00	; 0
    10ac:	80 81       	ld	r24, Z
    10ae:	28 2f       	mov	r18, r24
    10b0:	30 e0       	ldi	r19, 0x00	; 0
    10b2:	e9 e7       	ldi	r30, 0x79	; 121
    10b4:	f0 e0       	ldi	r31, 0x00	; 0
    10b6:	80 81       	ld	r24, Z
    10b8:	88 2f       	mov	r24, r24
    10ba:	90 e0       	ldi	r25, 0x00	; 0
    10bc:	98 2f       	mov	r25, r24
    10be:	88 27       	eor	r24, r24
    10c0:	82 2b       	or	r24, r18
    10c2:	93 2b       	or	r25, r19
    10c4:	21 96       	adiw	r28, 0x01	; 1
    10c6:	0f b6       	in	r0, 0x3f	; 63
    10c8:	f8 94       	cli
    10ca:	de bf       	out	0x3e, r29	; 62
    10cc:	0f be       	out	0x3f, r0	; 63
    10ce:	cd bf       	out	0x3d, r28	; 61
    10d0:	df 91       	pop	r29
    10d2:	cf 91       	pop	r28
    10d4:	08 95       	ret

000010d6 <a2dConvert8bit>:
    10d6:	cf 93       	push	r28
    10d8:	df 93       	push	r29
    10da:	cd b7       	in	r28, 0x3d	; 61
    10dc:	de b7       	in	r29, 0x3e	; 62
    10de:	21 97       	sbiw	r28, 0x01	; 1
    10e0:	0f b6       	in	r0, 0x3f	; 63
    10e2:	f8 94       	cli
    10e4:	de bf       	out	0x3e, r29	; 62
    10e6:	0f be       	out	0x3f, r0	; 63
    10e8:	cd bf       	out	0x3d, r28	; 61
    10ea:	89 83       	std	Y+1, r24	; 0x01
    10ec:	89 81       	ldd	r24, Y+1	; 0x01
    10ee:	0e 94 25 08 	call	0x104a	; 0x104a <a2dConvert10bit>
    10f2:	96 95       	lsr	r25
    10f4:	87 95       	ror	r24
    10f6:	96 95       	lsr	r25
    10f8:	87 95       	ror	r24
    10fa:	88 2f       	mov	r24, r24
    10fc:	90 e0       	ldi	r25, 0x00	; 0
    10fe:	21 96       	adiw	r28, 0x01	; 1
    1100:	0f b6       	in	r0, 0x3f	; 63
    1102:	f8 94       	cli
    1104:	de bf       	out	0x3e, r29	; 62
    1106:	0f be       	out	0x3f, r0	; 63
    1108:	cd bf       	out	0x3d, r28	; 61
    110a:	df 91       	pop	r29
    110c:	cf 91       	pop	r28
    110e:	08 95       	ret

00001110 <__vector_21>:
    1110:	1f 92       	push	r1
    1112:	0f 92       	push	r0
    1114:	0f b6       	in	r0, 0x3f	; 63
    1116:	0f 92       	push	r0
    1118:	11 24       	eor	r1, r1
    111a:	8f 93       	push	r24
    111c:	cf 93       	push	r28
    111e:	df 93       	push	r29
    1120:	cd b7       	in	r28, 0x3d	; 61
    1122:	de b7       	in	r29, 0x3e	; 62
    1124:	8f ef       	ldi	r24, 0xFF	; 255
    1126:	80 93 8c 02 	sts	0x028C, r24
    112a:	df 91       	pop	r29
    112c:	cf 91       	pop	r28
    112e:	8f 91       	pop	r24
    1130:	0f 90       	pop	r0
    1132:	0f be       	out	0x3f, r0	; 63
    1134:	0f 90       	pop	r0
    1136:	1f 90       	pop	r1
    1138:	18 95       	reti

0000113a <rprintfInit>:
    113a:	cf 93       	push	r28
    113c:	df 93       	push	r29
    113e:	cd b7       	in	r28, 0x3d	; 61
    1140:	de b7       	in	r29, 0x3e	; 62
    1142:	22 97       	sbiw	r28, 0x02	; 2
    1144:	0f b6       	in	r0, 0x3f	; 63
    1146:	f8 94       	cli
    1148:	de bf       	out	0x3e, r29	; 62
    114a:	0f be       	out	0x3f, r0	; 63
    114c:	cd bf       	out	0x3d, r28	; 61
    114e:	9a 83       	std	Y+2, r25	; 0x02
    1150:	89 83       	std	Y+1, r24	; 0x01
    1152:	89 81       	ldd	r24, Y+1	; 0x01
    1154:	9a 81       	ldd	r25, Y+2	; 0x02
    1156:	90 93 17 01 	sts	0x0117, r25
    115a:	80 93 16 01 	sts	0x0116, r24
    115e:	22 96       	adiw	r28, 0x02	; 2
    1160:	0f b6       	in	r0, 0x3f	; 63
    1162:	f8 94       	cli
    1164:	de bf       	out	0x3e, r29	; 62
    1166:	0f be       	out	0x3f, r0	; 63
    1168:	cd bf       	out	0x3d, r28	; 61
    116a:	df 91       	pop	r29
    116c:	cf 91       	pop	r28
    116e:	08 95       	ret

00001170 <rprintfChar>:
    1170:	cf 93       	push	r28
    1172:	df 93       	push	r29
    1174:	cd b7       	in	r28, 0x3d	; 61
    1176:	de b7       	in	r29, 0x3e	; 62
    1178:	21 97       	sbiw	r28, 0x01	; 1
    117a:	0f b6       	in	r0, 0x3f	; 63
    117c:	f8 94       	cli
    117e:	de bf       	out	0x3e, r29	; 62
    1180:	0f be       	out	0x3f, r0	; 63
    1182:	cd bf       	out	0x3d, r28	; 61
    1184:	89 83       	std	Y+1, r24	; 0x01
    1186:	89 81       	ldd	r24, Y+1	; 0x01
    1188:	8a 30       	cpi	r24, 0x0A	; 10
    118a:	31 f4       	brne	.+12     	; 0x1198 <rprintfChar+0x28>
    118c:	e0 91 16 01 	lds	r30, 0x0116
    1190:	f0 91 17 01 	lds	r31, 0x0117
    1194:	8d e0       	ldi	r24, 0x0D	; 13
    1196:	09 95       	icall
    1198:	e0 91 16 01 	lds	r30, 0x0116
    119c:	f0 91 17 01 	lds	r31, 0x0117
    11a0:	89 81       	ldd	r24, Y+1	; 0x01
    11a2:	09 95       	icall
    11a4:	21 96       	adiw	r28, 0x01	; 1
    11a6:	0f b6       	in	r0, 0x3f	; 63
    11a8:	f8 94       	cli
    11aa:	de bf       	out	0x3e, r29	; 62
    11ac:	0f be       	out	0x3f, r0	; 63
    11ae:	cd bf       	out	0x3d, r28	; 61
    11b0:	df 91       	pop	r29
    11b2:	cf 91       	pop	r28
    11b4:	08 95       	ret

000011b6 <rprintfStr>:
    11b6:	cf 93       	push	r28
    11b8:	df 93       	push	r29
    11ba:	cd b7       	in	r28, 0x3d	; 61
    11bc:	de b7       	in	r29, 0x3e	; 62
    11be:	22 97       	sbiw	r28, 0x02	; 2
    11c0:	0f b6       	in	r0, 0x3f	; 63
    11c2:	f8 94       	cli
    11c4:	de bf       	out	0x3e, r29	; 62
    11c6:	0f be       	out	0x3f, r0	; 63
    11c8:	cd bf       	out	0x3d, r28	; 61
    11ca:	9a 83       	std	Y+2, r25	; 0x02
    11cc:	89 83       	std	Y+1, r24	; 0x01
    11ce:	89 81       	ldd	r24, Y+1	; 0x01
    11d0:	9a 81       	ldd	r25, Y+2	; 0x02
    11d2:	00 97       	sbiw	r24, 0x00	; 0
    11d4:	89 f0       	breq	.+34     	; 0x11f8 <rprintfStr+0x42>
    11d6:	0b c0       	rjmp	.+22     	; 0x11ee <rprintfStr+0x38>
    11d8:	e9 81       	ldd	r30, Y+1	; 0x01
    11da:	fa 81       	ldd	r31, Y+2	; 0x02
    11dc:	20 81       	ld	r18, Z
    11de:	89 81       	ldd	r24, Y+1	; 0x01
    11e0:	9a 81       	ldd	r25, Y+2	; 0x02
    11e2:	01 96       	adiw	r24, 0x01	; 1
    11e4:	9a 83       	std	Y+2, r25	; 0x02
    11e6:	89 83       	std	Y+1, r24	; 0x01
    11e8:	82 2f       	mov	r24, r18
    11ea:	0e 94 b8 08 	call	0x1170	; 0x1170 <rprintfChar>
    11ee:	e9 81       	ldd	r30, Y+1	; 0x01
    11f0:	fa 81       	ldd	r31, Y+2	; 0x02
    11f2:	80 81       	ld	r24, Z
    11f4:	88 23       	and	r24, r24
    11f6:	81 f7       	brne	.-32     	; 0x11d8 <rprintfStr+0x22>
    11f8:	22 96       	adiw	r28, 0x02	; 2
    11fa:	0f b6       	in	r0, 0x3f	; 63
    11fc:	f8 94       	cli
    11fe:	de bf       	out	0x3e, r29	; 62
    1200:	0f be       	out	0x3f, r0	; 63
    1202:	cd bf       	out	0x3d, r28	; 61
    1204:	df 91       	pop	r29
    1206:	cf 91       	pop	r28
    1208:	08 95       	ret

0000120a <rprintfStrLen>:
    120a:	cf 93       	push	r28
    120c:	df 93       	push	r29
    120e:	cd b7       	in	r28, 0x3d	; 61
    1210:	de b7       	in	r29, 0x3e	; 62
    1212:	2a 97       	sbiw	r28, 0x0a	; 10
    1214:	0f b6       	in	r0, 0x3f	; 63
    1216:	f8 94       	cli
    1218:	de bf       	out	0x3e, r29	; 62
    121a:	0f be       	out	0x3f, r0	; 63
    121c:	cd bf       	out	0x3d, r28	; 61
    121e:	9a 83       	std	Y+2, r25	; 0x02
    1220:	89 83       	std	Y+1, r24	; 0x01
    1222:	7c 83       	std	Y+4, r23	; 0x04
    1224:	6b 83       	std	Y+3, r22	; 0x03
    1226:	5e 83       	std	Y+6, r21	; 0x06
    1228:	4d 83       	std	Y+5, r20	; 0x05
    122a:	18 86       	std	Y+8, r1	; 0x08
    122c:	1f 82       	std	Y+7, r1	; 0x07
    122e:	89 81       	ldd	r24, Y+1	; 0x01
    1230:	9a 81       	ldd	r25, Y+2	; 0x02
    1232:	00 97       	sbiw	r24, 0x00	; 0
    1234:	09 f4       	brne	.+2      	; 0x1238 <rprintfStrLen+0x2e>
    1236:	49 c0       	rjmp	.+146    	; 0x12ca <rprintfStrLen+0xc0>
    1238:	2f 81       	ldd	r18, Y+7	; 0x07
    123a:	38 85       	ldd	r19, Y+8	; 0x08
    123c:	19 86       	std	Y+9, r1	; 0x09
    123e:	8b 81       	ldd	r24, Y+3	; 0x03
    1240:	9c 81       	ldd	r25, Y+4	; 0x04
    1242:	28 17       	cp	r18, r24
    1244:	39 07       	cpc	r19, r25
    1246:	10 f4       	brcc	.+4      	; 0x124c <rprintfStrLen+0x42>
    1248:	81 e0       	ldi	r24, 0x01	; 1
    124a:	89 87       	std	Y+9, r24	; 0x09
    124c:	8f 81       	ldd	r24, Y+7	; 0x07
    124e:	98 85       	ldd	r25, Y+8	; 0x08
    1250:	01 96       	adiw	r24, 0x01	; 1
    1252:	98 87       	std	Y+8, r25	; 0x08
    1254:	8f 83       	std	Y+7, r24	; 0x07
    1256:	81 e0       	ldi	r24, 0x01	; 1
    1258:	99 85       	ldd	r25, Y+9	; 0x09
    125a:	89 27       	eor	r24, r25
    125c:	88 23       	and	r24, r24
    125e:	91 f4       	brne	.+36     	; 0x1284 <rprintfStrLen+0x7a>
    1260:	e9 81       	ldd	r30, Y+1	; 0x01
    1262:	fa 81       	ldd	r31, Y+2	; 0x02
    1264:	80 81       	ld	r24, Z
    1266:	8a 87       	std	Y+10, r24	; 0x0a
    1268:	8a 85       	ldd	r24, Y+10	; 0x0a
    126a:	88 23       	and	r24, r24
    126c:	11 f0       	breq	.+4      	; 0x1272 <rprintfStrLen+0x68>
    126e:	91 e0       	ldi	r25, 0x01	; 1
    1270:	9a 87       	std	Y+10, r25	; 0x0a
    1272:	8a 85       	ldd	r24, Y+10	; 0x0a
    1274:	29 81       	ldd	r18, Y+1	; 0x01
    1276:	3a 81       	ldd	r19, Y+2	; 0x02
    1278:	2f 5f       	subi	r18, 0xFF	; 255
    127a:	3f 4f       	sbci	r19, 0xFF	; 255
    127c:	3a 83       	std	Y+2, r19	; 0x02
    127e:	29 83       	std	Y+1, r18	; 0x01
    1280:	88 23       	and	r24, r24
    1282:	d1 f6       	brne	.-76     	; 0x1238 <rprintfStrLen+0x2e>
    1284:	18 86       	std	Y+8, r1	; 0x08
    1286:	1f 82       	std	Y+7, r1	; 0x07
    1288:	19 c0       	rjmp	.+50     	; 0x12bc <rprintfStrLen+0xb2>
    128a:	e9 81       	ldd	r30, Y+1	; 0x01
    128c:	fa 81       	ldd	r31, Y+2	; 0x02
    128e:	80 81       	ld	r24, Z
    1290:	88 23       	and	r24, r24
    1292:	61 f0       	breq	.+24     	; 0x12ac <rprintfStrLen+0xa2>
    1294:	e9 81       	ldd	r30, Y+1	; 0x01
    1296:	fa 81       	ldd	r31, Y+2	; 0x02
    1298:	20 81       	ld	r18, Z
    129a:	89 81       	ldd	r24, Y+1	; 0x01
    129c:	9a 81       	ldd	r25, Y+2	; 0x02
    129e:	01 96       	adiw	r24, 0x01	; 1
    12a0:	9a 83       	std	Y+2, r25	; 0x02
    12a2:	89 83       	std	Y+1, r24	; 0x01
    12a4:	82 2f       	mov	r24, r18
    12a6:	0e 94 b8 08 	call	0x1170	; 0x1170 <rprintfChar>
    12aa:	03 c0       	rjmp	.+6      	; 0x12b2 <rprintfStrLen+0xa8>
    12ac:	80 e2       	ldi	r24, 0x20	; 32
    12ae:	0e 94 b8 08 	call	0x1170	; 0x1170 <rprintfChar>
    12b2:	8f 81       	ldd	r24, Y+7	; 0x07
    12b4:	98 85       	ldd	r25, Y+8	; 0x08
    12b6:	01 96       	adiw	r24, 0x01	; 1
    12b8:	98 87       	std	Y+8, r25	; 0x08
    12ba:	8f 83       	std	Y+7, r24	; 0x07
    12bc:	2f 81       	ldd	r18, Y+7	; 0x07
    12be:	38 85       	ldd	r19, Y+8	; 0x08
    12c0:	8d 81       	ldd	r24, Y+5	; 0x05
    12c2:	9e 81       	ldd	r25, Y+6	; 0x06
    12c4:	28 17       	cp	r18, r24
    12c6:	39 07       	cpc	r19, r25
    12c8:	00 f3       	brcs	.-64     	; 0x128a <rprintfStrLen+0x80>
    12ca:	2a 96       	adiw	r28, 0x0a	; 10
    12cc:	0f b6       	in	r0, 0x3f	; 63
    12ce:	f8 94       	cli
    12d0:	de bf       	out	0x3e, r29	; 62
    12d2:	0f be       	out	0x3f, r0	; 63
    12d4:	cd bf       	out	0x3d, r28	; 61
    12d6:	df 91       	pop	r29
    12d8:	cf 91       	pop	r28
    12da:	08 95       	ret

000012dc <rprintfProgStr>:
    12dc:	cf 93       	push	r28
    12de:	df 93       	push	r29
    12e0:	cd b7       	in	r28, 0x3d	; 61
    12e2:	de b7       	in	r29, 0x3e	; 62
    12e4:	26 97       	sbiw	r28, 0x06	; 6
    12e6:	0f b6       	in	r0, 0x3f	; 63
    12e8:	f8 94       	cli
    12ea:	de bf       	out	0x3e, r29	; 62
    12ec:	0f be       	out	0x3f, r0	; 63
    12ee:	cd bf       	out	0x3d, r28	; 61
    12f0:	9d 83       	std	Y+5, r25	; 0x05
    12f2:	8c 83       	std	Y+4, r24	; 0x04
    12f4:	8c 81       	ldd	r24, Y+4	; 0x04
    12f6:	9d 81       	ldd	r25, Y+5	; 0x05
    12f8:	00 97       	sbiw	r24, 0x00	; 0
    12fa:	b1 f0       	breq	.+44     	; 0x1328 <rprintfProgStr+0x4c>
    12fc:	03 c0       	rjmp	.+6      	; 0x1304 <rprintfProgStr+0x28>
    12fe:	8e 81       	ldd	r24, Y+6	; 0x06
    1300:	0e 94 b8 08 	call	0x1170	; 0x1170 <rprintfChar>
    1304:	8c 81       	ldd	r24, Y+4	; 0x04
    1306:	9d 81       	ldd	r25, Y+5	; 0x05
    1308:	9b 83       	std	Y+3, r25	; 0x03
    130a:	8a 83       	std	Y+2, r24	; 0x02
    130c:	8c 81       	ldd	r24, Y+4	; 0x04
    130e:	9d 81       	ldd	r25, Y+5	; 0x05
    1310:	01 96       	adiw	r24, 0x01	; 1
    1312:	9d 83       	std	Y+5, r25	; 0x05
    1314:	8c 83       	std	Y+4, r24	; 0x04
    1316:	ea 81       	ldd	r30, Y+2	; 0x02
    1318:	fb 81       	ldd	r31, Y+3	; 0x03
    131a:	84 91       	lpm	r24, Z
    131c:	89 83       	std	Y+1, r24	; 0x01
    131e:	89 81       	ldd	r24, Y+1	; 0x01
    1320:	8e 83       	std	Y+6, r24	; 0x06
    1322:	8e 81       	ldd	r24, Y+6	; 0x06
    1324:	88 23       	and	r24, r24
    1326:	59 f7       	brne	.-42     	; 0x12fe <rprintfProgStr+0x22>
    1328:	26 96       	adiw	r28, 0x06	; 6
    132a:	0f b6       	in	r0, 0x3f	; 63
    132c:	f8 94       	cli
    132e:	de bf       	out	0x3e, r29	; 62
    1330:	0f be       	out	0x3f, r0	; 63
    1332:	cd bf       	out	0x3d, r28	; 61
    1334:	df 91       	pop	r29
    1336:	cf 91       	pop	r28
    1338:	08 95       	ret

0000133a <rprintfCRLF>:
    133a:	cf 93       	push	r28
    133c:	df 93       	push	r29
    133e:	cd b7       	in	r28, 0x3d	; 61
    1340:	de b7       	in	r29, 0x3e	; 62
    1342:	8a e0       	ldi	r24, 0x0A	; 10
    1344:	0e 94 b8 08 	call	0x1170	; 0x1170 <rprintfChar>
    1348:	df 91       	pop	r29
    134a:	cf 91       	pop	r28
    134c:	08 95       	ret

0000134e <rprintfu04>:
    134e:	cf 93       	push	r28
    1350:	df 93       	push	r29
    1352:	cd b7       	in	r28, 0x3d	; 61
    1354:	de b7       	in	r29, 0x3e	; 62
    1356:	24 97       	sbiw	r28, 0x04	; 4
    1358:	0f b6       	in	r0, 0x3f	; 63
    135a:	f8 94       	cli
    135c:	de bf       	out	0x3e, r29	; 62
    135e:	0f be       	out	0x3f, r0	; 63
    1360:	cd bf       	out	0x3d, r28	; 61
    1362:	8c 83       	std	Y+4, r24	; 0x04
    1364:	8c 81       	ldd	r24, Y+4	; 0x04
    1366:	88 2f       	mov	r24, r24
    1368:	90 e0       	ldi	r25, 0x00	; 0
    136a:	8f 70       	andi	r24, 0x0F	; 15
    136c:	90 70       	andi	r25, 0x00	; 0
    136e:	84 5c       	subi	r24, 0xC4	; 196
    1370:	9e 4f       	sbci	r25, 0xFE	; 254
    1372:	9b 83       	std	Y+3, r25	; 0x03
    1374:	8a 83       	std	Y+2, r24	; 0x02
    1376:	ea 81       	ldd	r30, Y+2	; 0x02
    1378:	fb 81       	ldd	r31, Y+3	; 0x03
    137a:	84 91       	lpm	r24, Z
    137c:	89 83       	std	Y+1, r24	; 0x01
    137e:	89 81       	ldd	r24, Y+1	; 0x01
    1380:	0e 94 b8 08 	call	0x1170	; 0x1170 <rprintfChar>
    1384:	24 96       	adiw	r28, 0x04	; 4
    1386:	0f b6       	in	r0, 0x3f	; 63
    1388:	f8 94       	cli
    138a:	de bf       	out	0x3e, r29	; 62
    138c:	0f be       	out	0x3f, r0	; 63
    138e:	cd bf       	out	0x3d, r28	; 61
    1390:	df 91       	pop	r29
    1392:	cf 91       	pop	r28
    1394:	08 95       	ret

00001396 <rprintfu08>:
    1396:	cf 93       	push	r28
    1398:	df 93       	push	r29
    139a:	cd b7       	in	r28, 0x3d	; 61
    139c:	de b7       	in	r29, 0x3e	; 62
    139e:	21 97       	sbiw	r28, 0x01	; 1
    13a0:	0f b6       	in	r0, 0x3f	; 63
    13a2:	f8 94       	cli
    13a4:	de bf       	out	0x3e, r29	; 62
    13a6:	0f be       	out	0x3f, r0	; 63
    13a8:	cd bf       	out	0x3d, r28	; 61
    13aa:	89 83       	std	Y+1, r24	; 0x01
    13ac:	89 81       	ldd	r24, Y+1	; 0x01
    13ae:	82 95       	swap	r24
    13b0:	8f 70       	andi	r24, 0x0F	; 15
    13b2:	0e 94 a7 09 	call	0x134e	; 0x134e <rprintfu04>
    13b6:	89 81       	ldd	r24, Y+1	; 0x01
    13b8:	0e 94 a7 09 	call	0x134e	; 0x134e <rprintfu04>
    13bc:	21 96       	adiw	r28, 0x01	; 1
    13be:	0f b6       	in	r0, 0x3f	; 63
    13c0:	f8 94       	cli
    13c2:	de bf       	out	0x3e, r29	; 62
    13c4:	0f be       	out	0x3f, r0	; 63
    13c6:	cd bf       	out	0x3d, r28	; 61
    13c8:	df 91       	pop	r29
    13ca:	cf 91       	pop	r28
    13cc:	08 95       	ret

000013ce <rprintfu16>:
    13ce:	cf 93       	push	r28
    13d0:	df 93       	push	r29
    13d2:	cd b7       	in	r28, 0x3d	; 61
    13d4:	de b7       	in	r29, 0x3e	; 62
    13d6:	22 97       	sbiw	r28, 0x02	; 2
    13d8:	0f b6       	in	r0, 0x3f	; 63
    13da:	f8 94       	cli
    13dc:	de bf       	out	0x3e, r29	; 62
    13de:	0f be       	out	0x3f, r0	; 63
    13e0:	cd bf       	out	0x3d, r28	; 61
    13e2:	9a 83       	std	Y+2, r25	; 0x02
    13e4:	89 83       	std	Y+1, r24	; 0x01
    13e6:	89 81       	ldd	r24, Y+1	; 0x01
    13e8:	9a 81       	ldd	r25, Y+2	; 0x02
    13ea:	89 2f       	mov	r24, r25
    13ec:	99 27       	eor	r25, r25
    13ee:	0e 94 cb 09 	call	0x1396	; 0x1396 <rprintfu08>
    13f2:	89 81       	ldd	r24, Y+1	; 0x01
    13f4:	0e 94 cb 09 	call	0x1396	; 0x1396 <rprintfu08>
    13f8:	22 96       	adiw	r28, 0x02	; 2
    13fa:	0f b6       	in	r0, 0x3f	; 63
    13fc:	f8 94       	cli
    13fe:	de bf       	out	0x3e, r29	; 62
    1400:	0f be       	out	0x3f, r0	; 63
    1402:	cd bf       	out	0x3d, r28	; 61
    1404:	df 91       	pop	r29
    1406:	cf 91       	pop	r28
    1408:	08 95       	ret

0000140a <rprintfu32>:
    140a:	cf 93       	push	r28
    140c:	df 93       	push	r29
    140e:	cd b7       	in	r28, 0x3d	; 61
    1410:	de b7       	in	r29, 0x3e	; 62
    1412:	24 97       	sbiw	r28, 0x04	; 4
    1414:	0f b6       	in	r0, 0x3f	; 63
    1416:	f8 94       	cli
    1418:	de bf       	out	0x3e, r29	; 62
    141a:	0f be       	out	0x3f, r0	; 63
    141c:	cd bf       	out	0x3d, r28	; 61
    141e:	69 83       	std	Y+1, r22	; 0x01
    1420:	7a 83       	std	Y+2, r23	; 0x02
    1422:	8b 83       	std	Y+3, r24	; 0x03
    1424:	9c 83       	std	Y+4, r25	; 0x04
    1426:	89 81       	ldd	r24, Y+1	; 0x01
    1428:	9a 81       	ldd	r25, Y+2	; 0x02
    142a:	ab 81       	ldd	r26, Y+3	; 0x03
    142c:	bc 81       	ldd	r27, Y+4	; 0x04
    142e:	cd 01       	movw	r24, r26
    1430:	aa 27       	eor	r26, r26
    1432:	bb 27       	eor	r27, r27
    1434:	0e 94 e7 09 	call	0x13ce	; 0x13ce <rprintfu16>
    1438:	89 81       	ldd	r24, Y+1	; 0x01
    143a:	9a 81       	ldd	r25, Y+2	; 0x02
    143c:	0e 94 e7 09 	call	0x13ce	; 0x13ce <rprintfu16>
    1440:	24 96       	adiw	r28, 0x04	; 4
    1442:	0f b6       	in	r0, 0x3f	; 63
    1444:	f8 94       	cli
    1446:	de bf       	out	0x3e, r29	; 62
    1448:	0f be       	out	0x3f, r0	; 63
    144a:	cd bf       	out	0x3d, r28	; 61
    144c:	df 91       	pop	r29
    144e:	cf 91       	pop	r28
    1450:	08 95       	ret

00001452 <rprintfNum>:
    1452:	ef 92       	push	r14
    1454:	ff 92       	push	r15
    1456:	0f 93       	push	r16
    1458:	1f 93       	push	r17
    145a:	cf 93       	push	r28
    145c:	df 93       	push	r29
    145e:	cd b7       	in	r28, 0x3d	; 61
    1460:	de b7       	in	r29, 0x3e	; 62
    1462:	e6 97       	sbiw	r28, 0x36	; 54
    1464:	0f b6       	in	r0, 0x3f	; 63
    1466:	f8 94       	cli
    1468:	de bf       	out	0x3e, r29	; 62
    146a:	0f be       	out	0x3f, r0	; 63
    146c:	cd bf       	out	0x3d, r28	; 61
    146e:	8e a7       	std	Y+46, r24	; 0x2e
    1470:	6f a7       	std	Y+47, r22	; 0x2f
    1472:	48 ab       	std	Y+48, r20	; 0x30
    1474:	29 ab       	std	Y+49, r18	; 0x31
    1476:	ea aa       	std	Y+50, r14	; 0x32
    1478:	fb aa       	std	Y+51, r15	; 0x33
    147a:	0c ab       	std	Y+52, r16	; 0x34
    147c:	1d ab       	std	Y+53, r17	; 0x35
    147e:	88 a9       	ldd	r24, Y+48	; 0x30
    1480:	88 23       	and	r24, r24
    1482:	b1 f0       	breq	.+44     	; 0x14b0 <rprintfNum+0x5e>
    1484:	8a a9       	ldd	r24, Y+50	; 0x32
    1486:	9b a9       	ldd	r25, Y+51	; 0x33
    1488:	ac a9       	ldd	r26, Y+52	; 0x34
    148a:	bd a9       	ldd	r27, Y+53	; 0x35
    148c:	bb 23       	and	r27, r27
    148e:	84 f4       	brge	.+32     	; 0x14b0 <rprintfNum+0x5e>
    1490:	8a a9       	ldd	r24, Y+50	; 0x32
    1492:	9b a9       	ldd	r25, Y+51	; 0x33
    1494:	ac a9       	ldd	r26, Y+52	; 0x34
    1496:	bd a9       	ldd	r27, Y+53	; 0x35
    1498:	b0 95       	com	r27
    149a:	a0 95       	com	r26
    149c:	90 95       	com	r25
    149e:	81 95       	neg	r24
    14a0:	9f 4f       	sbci	r25, 0xFF	; 255
    14a2:	af 4f       	sbci	r26, 0xFF	; 255
    14a4:	bf 4f       	sbci	r27, 0xFF	; 255
    14a6:	88 87       	std	Y+8, r24	; 0x08
    14a8:	99 87       	std	Y+9, r25	; 0x09
    14aa:	aa 87       	std	Y+10, r26	; 0x0a
    14ac:	bb 87       	std	Y+11, r27	; 0x0b
    14ae:	08 c0       	rjmp	.+16     	; 0x14c0 <rprintfNum+0x6e>
    14b0:	8a a9       	ldd	r24, Y+50	; 0x32
    14b2:	9b a9       	ldd	r25, Y+51	; 0x33
    14b4:	ac a9       	ldd	r26, Y+52	; 0x34
    14b6:	bd a9       	ldd	r27, Y+53	; 0x35
    14b8:	88 87       	std	Y+8, r24	; 0x08
    14ba:	99 87       	std	Y+9, r25	; 0x09
    14bc:	aa 87       	std	Y+10, r26	; 0x0a
    14be:	bb 87       	std	Y+11, r27	; 0x0b
    14c0:	88 a9       	ldd	r24, Y+48	; 0x30
    14c2:	8e ab       	std	Y+54, r24	; 0x36
    14c4:	8e a9       	ldd	r24, Y+54	; 0x36
    14c6:	88 23       	and	r24, r24
    14c8:	11 f0       	breq	.+4      	; 0x14ce <rprintfNum+0x7c>
    14ca:	81 e0       	ldi	r24, 0x01	; 1
    14cc:	8e ab       	std	Y+54, r24	; 0x36
    14ce:	9e a9       	ldd	r25, Y+54	; 0x36
    14d0:	8f a5       	ldd	r24, Y+47	; 0x2f
    14d2:	89 1b       	sub	r24, r25
    14d4:	81 50       	subi	r24, 0x01	; 1
    14d6:	8f 83       	std	Y+7, r24	; 0x07
    14d8:	ce 01       	movw	r24, r28
    14da:	0e 96       	adiw	r24, 0x0e	; 14
    14dc:	80 96       	adiw	r24, 0x20	; 32
    14de:	9d 87       	std	Y+13, r25	; 0x0d
    14e0:	8c 87       	std	Y+12, r24	; 0x0c
    14e2:	8c 85       	ldd	r24, Y+12	; 0x0c
    14e4:	9d 85       	ldd	r25, Y+13	; 0x0d
    14e6:	01 97       	sbiw	r24, 0x01	; 1
    14e8:	9d 87       	std	Y+13, r25	; 0x0d
    14ea:	8c 87       	std	Y+12, r24	; 0x0c
    14ec:	ec 85       	ldd	r30, Y+12	; 0x0c
    14ee:	fd 85       	ldd	r31, Y+13	; 0x0d
    14f0:	10 82       	st	Z, r1
    14f2:	8c 85       	ldd	r24, Y+12	; 0x0c
    14f4:	9d 85       	ldd	r25, Y+13	; 0x0d
    14f6:	01 97       	sbiw	r24, 0x01	; 1
    14f8:	9d 87       	std	Y+13, r25	; 0x0d
    14fa:	8c 87       	std	Y+12, r24	; 0x0c
    14fc:	8e a5       	ldd	r24, Y+46	; 0x2e
    14fe:	28 2f       	mov	r18, r24
    1500:	30 e0       	ldi	r19, 0x00	; 0
    1502:	40 e0       	ldi	r20, 0x00	; 0
    1504:	50 e0       	ldi	r21, 0x00	; 0
    1506:	88 85       	ldd	r24, Y+8	; 0x08
    1508:	99 85       	ldd	r25, Y+9	; 0x09
    150a:	aa 85       	ldd	r26, Y+10	; 0x0a
    150c:	bb 85       	ldd	r27, Y+11	; 0x0b
    150e:	bc 01       	movw	r22, r24
    1510:	cd 01       	movw	r24, r26
    1512:	0e 94 61 1b 	call	0x36c2	; 0x36c2 <__udivmodsi4>
    1516:	dc 01       	movw	r26, r24
    1518:	cb 01       	movw	r24, r22
    151a:	8f 70       	andi	r24, 0x0F	; 15
    151c:	90 70       	andi	r25, 0x00	; 0
    151e:	84 5c       	subi	r24, 0xC4	; 196
    1520:	9e 4f       	sbci	r25, 0xFE	; 254
    1522:	9e 83       	std	Y+6, r25	; 0x06
    1524:	8d 83       	std	Y+5, r24	; 0x05
    1526:	ed 81       	ldd	r30, Y+5	; 0x05
    1528:	fe 81       	ldd	r31, Y+6	; 0x06
    152a:	84 91       	lpm	r24, Z
    152c:	8c 83       	std	Y+4, r24	; 0x04
    152e:	8c 81       	ldd	r24, Y+4	; 0x04
    1530:	ec 85       	ldd	r30, Y+12	; 0x0c
    1532:	fd 85       	ldd	r31, Y+13	; 0x0d
    1534:	80 83       	st	Z, r24
    1536:	8e a5       	ldd	r24, Y+46	; 0x2e
    1538:	28 2f       	mov	r18, r24
    153a:	30 e0       	ldi	r19, 0x00	; 0
    153c:	40 e0       	ldi	r20, 0x00	; 0
    153e:	50 e0       	ldi	r21, 0x00	; 0
    1540:	88 85       	ldd	r24, Y+8	; 0x08
    1542:	99 85       	ldd	r25, Y+9	; 0x09
    1544:	aa 85       	ldd	r26, Y+10	; 0x0a
    1546:	bb 85       	ldd	r27, Y+11	; 0x0b
    1548:	bc 01       	movw	r22, r24
    154a:	cd 01       	movw	r24, r26
    154c:	0e 94 61 1b 	call	0x36c2	; 0x36c2 <__udivmodsi4>
    1550:	da 01       	movw	r26, r20
    1552:	c9 01       	movw	r24, r18
    1554:	88 87       	std	Y+8, r24	; 0x08
    1556:	99 87       	std	Y+9, r25	; 0x09
    1558:	aa 87       	std	Y+10, r26	; 0x0a
    155a:	bb 87       	std	Y+11, r27	; 0x0b
    155c:	47 c0       	rjmp	.+142    	; 0x15ec <rprintfNum+0x19a>
    155e:	88 85       	ldd	r24, Y+8	; 0x08
    1560:	99 85       	ldd	r25, Y+9	; 0x09
    1562:	aa 85       	ldd	r26, Y+10	; 0x0a
    1564:	bb 85       	ldd	r27, Y+11	; 0x0b
    1566:	00 97       	sbiw	r24, 0x00	; 0
    1568:	a1 05       	cpc	r26, r1
    156a:	b1 05       	cpc	r27, r1
    156c:	b1 f1       	breq	.+108    	; 0x15da <rprintfNum+0x188>
    156e:	8c 85       	ldd	r24, Y+12	; 0x0c
    1570:	9d 85       	ldd	r25, Y+13	; 0x0d
    1572:	01 97       	sbiw	r24, 0x01	; 1
    1574:	9d 87       	std	Y+13, r25	; 0x0d
    1576:	8c 87       	std	Y+12, r24	; 0x0c
    1578:	8e a5       	ldd	r24, Y+46	; 0x2e
    157a:	28 2f       	mov	r18, r24
    157c:	30 e0       	ldi	r19, 0x00	; 0
    157e:	40 e0       	ldi	r20, 0x00	; 0
    1580:	50 e0       	ldi	r21, 0x00	; 0
    1582:	88 85       	ldd	r24, Y+8	; 0x08
    1584:	99 85       	ldd	r25, Y+9	; 0x09
    1586:	aa 85       	ldd	r26, Y+10	; 0x0a
    1588:	bb 85       	ldd	r27, Y+11	; 0x0b
    158a:	bc 01       	movw	r22, r24
    158c:	cd 01       	movw	r24, r26
    158e:	0e 94 61 1b 	call	0x36c2	; 0x36c2 <__udivmodsi4>
    1592:	dc 01       	movw	r26, r24
    1594:	cb 01       	movw	r24, r22
    1596:	8f 70       	andi	r24, 0x0F	; 15
    1598:	90 70       	andi	r25, 0x00	; 0
    159a:	84 5c       	subi	r24, 0xC4	; 196
    159c:	9e 4f       	sbci	r25, 0xFE	; 254
    159e:	9b 83       	std	Y+3, r25	; 0x03
    15a0:	8a 83       	std	Y+2, r24	; 0x02
    15a2:	ea 81       	ldd	r30, Y+2	; 0x02
    15a4:	fb 81       	ldd	r31, Y+3	; 0x03
    15a6:	84 91       	lpm	r24, Z
    15a8:	89 83       	std	Y+1, r24	; 0x01
    15aa:	89 81       	ldd	r24, Y+1	; 0x01
    15ac:	ec 85       	ldd	r30, Y+12	; 0x0c
    15ae:	fd 85       	ldd	r31, Y+13	; 0x0d
    15b0:	80 83       	st	Z, r24
    15b2:	8e a5       	ldd	r24, Y+46	; 0x2e
    15b4:	28 2f       	mov	r18, r24
    15b6:	30 e0       	ldi	r19, 0x00	; 0
    15b8:	40 e0       	ldi	r20, 0x00	; 0
    15ba:	50 e0       	ldi	r21, 0x00	; 0
    15bc:	88 85       	ldd	r24, Y+8	; 0x08
    15be:	99 85       	ldd	r25, Y+9	; 0x09
    15c0:	aa 85       	ldd	r26, Y+10	; 0x0a
    15c2:	bb 85       	ldd	r27, Y+11	; 0x0b
    15c4:	bc 01       	movw	r22, r24
    15c6:	cd 01       	movw	r24, r26
    15c8:	0e 94 61 1b 	call	0x36c2	; 0x36c2 <__udivmodsi4>
    15cc:	da 01       	movw	r26, r20
    15ce:	c9 01       	movw	r24, r18
    15d0:	88 87       	std	Y+8, r24	; 0x08
    15d2:	99 87       	std	Y+9, r25	; 0x09
    15d4:	aa 87       	std	Y+10, r26	; 0x0a
    15d6:	bb 87       	std	Y+11, r27	; 0x0b
    15d8:	09 c0       	rjmp	.+18     	; 0x15ec <rprintfNum+0x19a>
    15da:	8c 85       	ldd	r24, Y+12	; 0x0c
    15dc:	9d 85       	ldd	r25, Y+13	; 0x0d
    15de:	01 97       	sbiw	r24, 0x01	; 1
    15e0:	9d 87       	std	Y+13, r25	; 0x0d
    15e2:	8c 87       	std	Y+12, r24	; 0x0c
    15e4:	ec 85       	ldd	r30, Y+12	; 0x0c
    15e6:	fd 85       	ldd	r31, Y+13	; 0x0d
    15e8:	89 a9       	ldd	r24, Y+49	; 0x31
    15ea:	80 83       	st	Z, r24
    15ec:	8f 81       	ldd	r24, Y+7	; 0x07
    15ee:	81 50       	subi	r24, 0x01	; 1
    15f0:	8f 83       	std	Y+7, r24	; 0x07
    15f2:	8f 81       	ldd	r24, Y+7	; 0x07
    15f4:	8f 3f       	cpi	r24, 0xFF	; 255
    15f6:	09 f0       	breq	.+2      	; 0x15fa <rprintfNum+0x1a8>
    15f8:	b2 cf       	rjmp	.-156    	; 0x155e <rprintfNum+0x10c>
    15fa:	88 a9       	ldd	r24, Y+48	; 0x30
    15fc:	88 23       	and	r24, r24
    15fe:	61 f1       	breq	.+88     	; 0x1658 <rprintfNum+0x206>
    1600:	8a a9       	ldd	r24, Y+50	; 0x32
    1602:	9b a9       	ldd	r25, Y+51	; 0x33
    1604:	ac a9       	ldd	r26, Y+52	; 0x34
    1606:	bd a9       	ldd	r27, Y+53	; 0x35
    1608:	bb 23       	and	r27, r27
    160a:	54 f4       	brge	.+20     	; 0x1620 <rprintfNum+0x1ce>
    160c:	8c 85       	ldd	r24, Y+12	; 0x0c
    160e:	9d 85       	ldd	r25, Y+13	; 0x0d
    1610:	01 97       	sbiw	r24, 0x01	; 1
    1612:	9d 87       	std	Y+13, r25	; 0x0d
    1614:	8c 87       	std	Y+12, r24	; 0x0c
    1616:	ec 85       	ldd	r30, Y+12	; 0x0c
    1618:	fd 85       	ldd	r31, Y+13	; 0x0d
    161a:	8d e2       	ldi	r24, 0x2D	; 45
    161c:	80 83       	st	Z, r24
    161e:	1c c0       	rjmp	.+56     	; 0x1658 <rprintfNum+0x206>
    1620:	8a a9       	ldd	r24, Y+50	; 0x32
    1622:	9b a9       	ldd	r25, Y+51	; 0x33
    1624:	ac a9       	ldd	r26, Y+52	; 0x34
    1626:	bd a9       	ldd	r27, Y+53	; 0x35
    1628:	18 16       	cp	r1, r24
    162a:	19 06       	cpc	r1, r25
    162c:	1a 06       	cpc	r1, r26
    162e:	1b 06       	cpc	r1, r27
    1630:	54 f4       	brge	.+20     	; 0x1646 <rprintfNum+0x1f4>
    1632:	8c 85       	ldd	r24, Y+12	; 0x0c
    1634:	9d 85       	ldd	r25, Y+13	; 0x0d
    1636:	01 97       	sbiw	r24, 0x01	; 1
    1638:	9d 87       	std	Y+13, r25	; 0x0d
    163a:	8c 87       	std	Y+12, r24	; 0x0c
    163c:	ec 85       	ldd	r30, Y+12	; 0x0c
    163e:	fd 85       	ldd	r31, Y+13	; 0x0d
    1640:	8b e2       	ldi	r24, 0x2B	; 43
    1642:	80 83       	st	Z, r24
    1644:	09 c0       	rjmp	.+18     	; 0x1658 <rprintfNum+0x206>
    1646:	8c 85       	ldd	r24, Y+12	; 0x0c
    1648:	9d 85       	ldd	r25, Y+13	; 0x0d
    164a:	01 97       	sbiw	r24, 0x01	; 1
    164c:	9d 87       	std	Y+13, r25	; 0x0d
    164e:	8c 87       	std	Y+12, r24	; 0x0c
    1650:	ec 85       	ldd	r30, Y+12	; 0x0c
    1652:	fd 85       	ldd	r31, Y+13	; 0x0d
    1654:	80 e2       	ldi	r24, 0x20	; 32
    1656:	80 83       	st	Z, r24
    1658:	8f a5       	ldd	r24, Y+47	; 0x2f
    165a:	8f 83       	std	Y+7, r24	; 0x07
    165c:	0b c0       	rjmp	.+22     	; 0x1674 <rprintfNum+0x222>
    165e:	ec 85       	ldd	r30, Y+12	; 0x0c
    1660:	fd 85       	ldd	r31, Y+13	; 0x0d
    1662:	20 81       	ld	r18, Z
    1664:	8c 85       	ldd	r24, Y+12	; 0x0c
    1666:	9d 85       	ldd	r25, Y+13	; 0x0d
    1668:	01 96       	adiw	r24, 0x01	; 1
    166a:	9d 87       	std	Y+13, r25	; 0x0d
    166c:	8c 87       	std	Y+12, r24	; 0x0c
    166e:	82 2f       	mov	r24, r18
    1670:	0e 94 b8 08 	call	0x1170	; 0x1170 <rprintfChar>
    1674:	8f 81       	ldd	r24, Y+7	; 0x07
    1676:	81 50       	subi	r24, 0x01	; 1
    1678:	8f 83       	std	Y+7, r24	; 0x07
    167a:	8f 81       	ldd	r24, Y+7	; 0x07
    167c:	8f 3f       	cpi	r24, 0xFF	; 255
    167e:	79 f7       	brne	.-34     	; 0x165e <rprintfNum+0x20c>
    1680:	e6 96       	adiw	r28, 0x36	; 54
    1682:	0f b6       	in	r0, 0x3f	; 63
    1684:	f8 94       	cli
    1686:	de bf       	out	0x3e, r29	; 62
    1688:	0f be       	out	0x3f, r0	; 63
    168a:	cd bf       	out	0x3d, r28	; 61
    168c:	df 91       	pop	r29
    168e:	cf 91       	pop	r28
    1690:	1f 91       	pop	r17
    1692:	0f 91       	pop	r16
    1694:	ff 90       	pop	r15
    1696:	ef 90       	pop	r14
    1698:	08 95       	ret

0000169a <rprintf1RamRom>:
    169a:	cf 93       	push	r28
    169c:	df 93       	push	r29
    169e:	cd b7       	in	r28, 0x3d	; 61
    16a0:	de b7       	in	r29, 0x3e	; 62
    16a2:	65 97       	sbiw	r28, 0x15	; 21
    16a4:	0f b6       	in	r0, 0x3f	; 63
    16a6:	f8 94       	cli
    16a8:	de bf       	out	0x3e, r29	; 62
    16aa:	0f be       	out	0x3f, r0	; 63
    16ac:	cd bf       	out	0x3d, r28	; 61
    16ae:	ce 01       	movw	r24, r28
    16b0:	4d 96       	adiw	r24, 0x1d	; 29
    16b2:	9f 87       	std	Y+15, r25	; 0x0f
    16b4:	8e 87       	std	Y+14, r24	; 0x0e
    16b6:	0b c0       	rjmp	.+22     	; 0x16ce <rprintf1RamRom+0x34>
    16b8:	8d 85       	ldd	r24, Y+13	; 0x0d
    16ba:	88 23       	and	r24, r24
    16bc:	29 f4       	brne	.+10     	; 0x16c8 <rprintf1RamRom+0x2e>
    16be:	80 e0       	ldi	r24, 0x00	; 0
    16c0:	90 e0       	ldi	r25, 0x00	; 0
    16c2:	9d 8b       	std	Y+21, r25	; 0x15
    16c4:	8c 8b       	std	Y+20, r24	; 0x14
    16c6:	cb c0       	rjmp	.+406    	; 0x185e <rprintf1RamRom+0x1c4>
    16c8:	8d 85       	ldd	r24, Y+13	; 0x0d
    16ca:	0e 94 b8 08 	call	0x1170	; 0x1170 <rprintfChar>
    16ce:	8a 8d       	ldd	r24, Y+26	; 0x1a
    16d0:	88 23       	and	r24, r24
    16d2:	81 f0       	breq	.+32     	; 0x16f4 <rprintf1RamRom+0x5a>
    16d4:	8b 8d       	ldd	r24, Y+27	; 0x1b
    16d6:	9c 8d       	ldd	r25, Y+28	; 0x1c
    16d8:	9e 83       	std	Y+6, r25	; 0x06
    16da:	8d 83       	std	Y+5, r24	; 0x05
    16dc:	8b 8d       	ldd	r24, Y+27	; 0x1b
    16de:	9c 8d       	ldd	r25, Y+28	; 0x1c
    16e0:	01 96       	adiw	r24, 0x01	; 1
    16e2:	9c 8f       	std	Y+28, r25	; 0x1c
    16e4:	8b 8f       	std	Y+27, r24	; 0x1b
    16e6:	ed 81       	ldd	r30, Y+5	; 0x05
    16e8:	fe 81       	ldd	r31, Y+6	; 0x06
    16ea:	84 91       	lpm	r24, Z
    16ec:	8c 83       	std	Y+4, r24	; 0x04
    16ee:	8c 81       	ldd	r24, Y+4	; 0x04
    16f0:	8b 8b       	std	Y+19, r24	; 0x13
    16f2:	09 c0       	rjmp	.+18     	; 0x1706 <rprintf1RamRom+0x6c>
    16f4:	eb 8d       	ldd	r30, Y+27	; 0x1b
    16f6:	fc 8d       	ldd	r31, Y+28	; 0x1c
    16f8:	e0 81       	ld	r30, Z
    16fa:	eb 8b       	std	Y+19, r30	; 0x13
    16fc:	8b 8d       	ldd	r24, Y+27	; 0x1b
    16fe:	9c 8d       	ldd	r25, Y+28	; 0x1c
    1700:	01 96       	adiw	r24, 0x01	; 1
    1702:	9c 8f       	std	Y+28, r25	; 0x1c
    1704:	8b 8f       	std	Y+27, r24	; 0x1b
    1706:	2b 89       	ldd	r18, Y+19	; 0x13
    1708:	2d 87       	std	Y+13, r18	; 0x0d
    170a:	8d 85       	ldd	r24, Y+13	; 0x0d
    170c:	85 32       	cpi	r24, 0x25	; 37
    170e:	a1 f6       	brne	.-88     	; 0x16b8 <rprintf1RamRom+0x1e>
    1710:	8a 8d       	ldd	r24, Y+26	; 0x1a
    1712:	88 23       	and	r24, r24
    1714:	81 f0       	breq	.+32     	; 0x1736 <rprintf1RamRom+0x9c>
    1716:	8b 8d       	ldd	r24, Y+27	; 0x1b
    1718:	9c 8d       	ldd	r25, Y+28	; 0x1c
    171a:	9b 83       	std	Y+3, r25	; 0x03
    171c:	8a 83       	std	Y+2, r24	; 0x02
    171e:	8b 8d       	ldd	r24, Y+27	; 0x1b
    1720:	9c 8d       	ldd	r25, Y+28	; 0x1c
    1722:	01 96       	adiw	r24, 0x01	; 1
    1724:	9c 8f       	std	Y+28, r25	; 0x1c
    1726:	8b 8f       	std	Y+27, r24	; 0x1b
    1728:	ea 81       	ldd	r30, Y+2	; 0x02
    172a:	fb 81       	ldd	r31, Y+3	; 0x03
    172c:	84 91       	lpm	r24, Z
    172e:	89 83       	std	Y+1, r24	; 0x01
    1730:	89 81       	ldd	r24, Y+1	; 0x01
    1732:	8a 8b       	std	Y+18, r24	; 0x12
    1734:	09 c0       	rjmp	.+18     	; 0x1748 <rprintf1RamRom+0xae>
    1736:	eb 8d       	ldd	r30, Y+27	; 0x1b
    1738:	fc 8d       	ldd	r31, Y+28	; 0x1c
    173a:	e0 81       	ld	r30, Z
    173c:	ea 8b       	std	Y+18, r30	; 0x12
    173e:	8b 8d       	ldd	r24, Y+27	; 0x1b
    1740:	9c 8d       	ldd	r25, Y+28	; 0x1c
    1742:	01 96       	adiw	r24, 0x01	; 1
    1744:	9c 8f       	std	Y+28, r25	; 0x1c
    1746:	8b 8f       	std	Y+27, r24	; 0x1b
    1748:	3a 89       	ldd	r19, Y+18	; 0x12
    174a:	3d 87       	std	Y+13, r19	; 0x0d
    174c:	8d 85       	ldd	r24, Y+13	; 0x0d
    174e:	28 2f       	mov	r18, r24
    1750:	30 e0       	ldi	r19, 0x00	; 0
    1752:	39 8b       	std	Y+17, r19	; 0x11
    1754:	28 8b       	std	Y+16, r18	; 0x10
    1756:	88 89       	ldd	r24, Y+16	; 0x10
    1758:	99 89       	ldd	r25, Y+17	; 0x11
    175a:	84 36       	cpi	r24, 0x64	; 100
    175c:	91 05       	cpc	r25, r1
    175e:	c9 f0       	breq	.+50     	; 0x1792 <rprintf1RamRom+0xf8>
    1760:	28 89       	ldd	r18, Y+16	; 0x10
    1762:	39 89       	ldd	r19, Y+17	; 0x11
    1764:	28 37       	cpi	r18, 0x78	; 120
    1766:	31 05       	cpc	r19, r1
    1768:	e9 f0       	breq	.+58     	; 0x17a4 <rprintf1RamRom+0x10a>
    176a:	88 89       	ldd	r24, Y+16	; 0x10
    176c:	99 89       	ldd	r25, Y+17	; 0x11
    176e:	83 36       	cpi	r24, 0x63	; 99
    1770:	91 05       	cpc	r25, r1
    1772:	09 f0       	breq	.+2      	; 0x1776 <rprintf1RamRom+0xdc>
    1774:	0a c0       	rjmp	.+20     	; 0x178a <rprintf1RamRom+0xf0>
    1776:	2e 85       	ldd	r18, Y+14	; 0x0e
    1778:	3f 85       	ldd	r19, Y+15	; 0x0f
    177a:	c9 01       	movw	r24, r18
    177c:	02 96       	adiw	r24, 0x02	; 2
    177e:	9f 87       	std	Y+15, r25	; 0x0f
    1780:	8e 87       	std	Y+14, r24	; 0x0e
    1782:	f9 01       	movw	r30, r18
    1784:	80 81       	ld	r24, Z
    1786:	91 81       	ldd	r25, Z+1	; 0x01
    1788:	8d 87       	std	Y+13, r24	; 0x0d
    178a:	8d 85       	ldd	r24, Y+13	; 0x0d
    178c:	0e 94 b8 08 	call	0x1170	; 0x1170 <rprintfChar>
    1790:	9e cf       	rjmp	.-196    	; 0x16ce <rprintf1RamRom+0x34>
    1792:	8a e0       	ldi	r24, 0x0A	; 10
    1794:	90 e0       	ldi	r25, 0x00	; 0
    1796:	98 87       	std	Y+8, r25	; 0x08
    1798:	8f 83       	std	Y+7, r24	; 0x07
    179a:	80 e1       	ldi	r24, 0x10	; 16
    179c:	97 e2       	ldi	r25, 0x27	; 39
    179e:	9a 87       	std	Y+10, r25	; 0x0a
    17a0:	89 87       	std	Y+9, r24	; 0x09
    17a2:	08 c0       	rjmp	.+16     	; 0x17b4 <rprintf1RamRom+0x11a>
    17a4:	80 e1       	ldi	r24, 0x10	; 16
    17a6:	90 e0       	ldi	r25, 0x00	; 0
    17a8:	98 87       	std	Y+8, r25	; 0x08
    17aa:	8f 83       	std	Y+7, r24	; 0x07
    17ac:	80 e0       	ldi	r24, 0x00	; 0
    17ae:	90 e1       	ldi	r25, 0x10	; 16
    17b0:	9a 87       	std	Y+10, r25	; 0x0a
    17b2:	89 87       	std	Y+9, r24	; 0x09
    17b4:	2e 85       	ldd	r18, Y+14	; 0x0e
    17b6:	3f 85       	ldd	r19, Y+15	; 0x0f
    17b8:	c9 01       	movw	r24, r18
    17ba:	02 96       	adiw	r24, 0x02	; 2
    17bc:	9f 87       	std	Y+15, r25	; 0x0f
    17be:	8e 87       	std	Y+14, r24	; 0x0e
    17c0:	f9 01       	movw	r30, r18
    17c2:	80 81       	ld	r24, Z
    17c4:	91 81       	ldd	r25, Z+1	; 0x01
    17c6:	9c 87       	std	Y+12, r25	; 0x0c
    17c8:	8b 87       	std	Y+11, r24	; 0x0b
    17ca:	8d 85       	ldd	r24, Y+13	; 0x0d
    17cc:	84 36       	cpi	r24, 0x64	; 100
    17ce:	29 f5       	brne	.+74     	; 0x181a <rprintf1RamRom+0x180>
    17d0:	8b 85       	ldd	r24, Y+11	; 0x0b
    17d2:	9c 85       	ldd	r25, Y+12	; 0x0c
    17d4:	99 23       	and	r25, r25
    17d6:	ac f4       	brge	.+42     	; 0x1802 <rprintf1RamRom+0x168>
    17d8:	8b 85       	ldd	r24, Y+11	; 0x0b
    17da:	9c 85       	ldd	r25, Y+12	; 0x0c
    17dc:	90 95       	com	r25
    17de:	81 95       	neg	r24
    17e0:	9f 4f       	sbci	r25, 0xFF	; 255
    17e2:	9c 87       	std	Y+12, r25	; 0x0c
    17e4:	8b 87       	std	Y+11, r24	; 0x0b
    17e6:	8d e2       	ldi	r24, 0x2D	; 45
    17e8:	0e 94 b8 08 	call	0x1170	; 0x1170 <rprintfChar>
    17ec:	0a c0       	rjmp	.+20     	; 0x1802 <rprintf1RamRom+0x168>
    17ee:	89 85       	ldd	r24, Y+9	; 0x09
    17f0:	9a 85       	ldd	r25, Y+10	; 0x0a
    17f2:	2a e0       	ldi	r18, 0x0A	; 10
    17f4:	30 e0       	ldi	r19, 0x00	; 0
    17f6:	b9 01       	movw	r22, r18
    17f8:	0e 94 3a 1b 	call	0x3674	; 0x3674 <__udivmodhi4>
    17fc:	cb 01       	movw	r24, r22
    17fe:	9a 87       	std	Y+10, r25	; 0x0a
    1800:	89 87       	std	Y+9, r24	; 0x09
    1802:	89 85       	ldd	r24, Y+9	; 0x09
    1804:	9a 85       	ldd	r25, Y+10	; 0x0a
    1806:	82 30       	cpi	r24, 0x02	; 2
    1808:	91 05       	cpc	r25, r1
    180a:	38 f0       	brcs	.+14     	; 0x181a <rprintf1RamRom+0x180>
    180c:	29 85       	ldd	r18, Y+9	; 0x09
    180e:	3a 85       	ldd	r19, Y+10	; 0x0a
    1810:	8b 85       	ldd	r24, Y+11	; 0x0b
    1812:	9c 85       	ldd	r25, Y+12	; 0x0c
    1814:	82 17       	cp	r24, r18
    1816:	93 07       	cpc	r25, r19
    1818:	50 f3       	brcs	.-44     	; 0x17ee <rprintf1RamRom+0x154>
    181a:	8b 85       	ldd	r24, Y+11	; 0x0b
    181c:	9c 85       	ldd	r25, Y+12	; 0x0c
    181e:	29 85       	ldd	r18, Y+9	; 0x09
    1820:	3a 85       	ldd	r19, Y+10	; 0x0a
    1822:	b9 01       	movw	r22, r18
    1824:	0e 94 3a 1b 	call	0x3674	; 0x3674 <__udivmodhi4>
    1828:	cb 01       	movw	r24, r22
    182a:	0e 94 a7 09 	call	0x134e	; 0x134e <rprintfu04>
    182e:	8b 85       	ldd	r24, Y+11	; 0x0b
    1830:	9c 85       	ldd	r25, Y+12	; 0x0c
    1832:	29 85       	ldd	r18, Y+9	; 0x09
    1834:	3a 85       	ldd	r19, Y+10	; 0x0a
    1836:	b9 01       	movw	r22, r18
    1838:	0e 94 3a 1b 	call	0x3674	; 0x3674 <__udivmodhi4>
    183c:	9c 87       	std	Y+12, r25	; 0x0c
    183e:	8b 87       	std	Y+11, r24	; 0x0b
    1840:	89 85       	ldd	r24, Y+9	; 0x09
    1842:	9a 85       	ldd	r25, Y+10	; 0x0a
    1844:	2f 81       	ldd	r18, Y+7	; 0x07
    1846:	38 85       	ldd	r19, Y+8	; 0x08
    1848:	b9 01       	movw	r22, r18
    184a:	0e 94 3a 1b 	call	0x3674	; 0x3674 <__udivmodhi4>
    184e:	cb 01       	movw	r24, r22
    1850:	9a 87       	std	Y+10, r25	; 0x0a
    1852:	89 87       	std	Y+9, r24	; 0x09
    1854:	89 85       	ldd	r24, Y+9	; 0x09
    1856:	9a 85       	ldd	r25, Y+10	; 0x0a
    1858:	00 97       	sbiw	r24, 0x00	; 0
    185a:	f9 f6       	brne	.-66     	; 0x181a <rprintf1RamRom+0x180>
    185c:	38 cf       	rjmp	.-400    	; 0x16ce <rprintf1RamRom+0x34>
    185e:	8c 89       	ldd	r24, Y+20	; 0x14
    1860:	9d 89       	ldd	r25, Y+21	; 0x15
    1862:	65 96       	adiw	r28, 0x15	; 21
    1864:	0f b6       	in	r0, 0x3f	; 63
    1866:	f8 94       	cli
    1868:	de bf       	out	0x3e, r29	; 62
    186a:	0f be       	out	0x3f, r0	; 63
    186c:	cd bf       	out	0x3d, r28	; 61
    186e:	df 91       	pop	r29
    1870:	cf 91       	pop	r28
    1872:	08 95       	ret

00001874 <delay_us>:
    1874:	cf 93       	push	r28
    1876:	df 93       	push	r29
    1878:	cd b7       	in	r28, 0x3d	; 61
    187a:	de b7       	in	r29, 0x3e	; 62
    187c:	26 97       	sbiw	r28, 0x06	; 6
    187e:	0f b6       	in	r0, 0x3f	; 63
    1880:	f8 94       	cli
    1882:	de bf       	out	0x3e, r29	; 62
    1884:	0f be       	out	0x3f, r0	; 63
    1886:	cd bf       	out	0x3d, r28	; 61
    1888:	9c 83       	std	Y+4, r25	; 0x04
    188a:	8b 83       	std	Y+3, r24	; 0x03
    188c:	8b 81       	ldd	r24, Y+3	; 0x03
    188e:	9c 81       	ldd	r25, Y+4	; 0x04
    1890:	03 96       	adiw	r24, 0x03	; 3
    1892:	25 e0       	ldi	r18, 0x05	; 5
    1894:	30 e0       	ldi	r19, 0x00	; 0
    1896:	b9 01       	movw	r22, r18
    1898:	0e 94 3a 1b 	call	0x3674	; 0x3674 <__udivmodhi4>
    189c:	cb 01       	movw	r24, r22
    189e:	cc 01       	movw	r24, r24
    18a0:	a0 e0       	ldi	r26, 0x00	; 0
    18a2:	b0 e0       	ldi	r27, 0x00	; 0
    18a4:	88 0f       	add	r24, r24
    18a6:	99 1f       	adc	r25, r25
    18a8:	aa 1f       	adc	r26, r26
    18aa:	bb 1f       	adc	r27, r27
    18ac:	88 0f       	add	r24, r24
    18ae:	99 1f       	adc	r25, r25
    18b0:	aa 1f       	adc	r26, r26
    18b2:	bb 1f       	adc	r27, r27
    18b4:	9a 83       	std	Y+2, r25	; 0x02
    18b6:	89 83       	std	Y+1, r24	; 0x01
    18b8:	1e 82       	std	Y+6, r1	; 0x06
    18ba:	1d 82       	std	Y+5, r1	; 0x05
    18bc:	06 c0       	rjmp	.+12     	; 0x18ca <delay_us+0x56>
    18be:	2d 81       	ldd	r18, Y+5	; 0x05
    18c0:	3e 81       	ldd	r19, Y+6	; 0x06
    18c2:	2f 5f       	subi	r18, 0xFF	; 255
    18c4:	3f 4f       	sbci	r19, 0xFF	; 255
    18c6:	3e 83       	std	Y+6, r19	; 0x06
    18c8:	2d 83       	std	Y+5, r18	; 0x05
    18ca:	89 81       	ldd	r24, Y+1	; 0x01
    18cc:	9a 81       	ldd	r25, Y+2	; 0x02
    18ce:	2d 81       	ldd	r18, Y+5	; 0x05
    18d0:	3e 81       	ldd	r19, Y+6	; 0x06
    18d2:	28 17       	cp	r18, r24
    18d4:	39 07       	cpc	r19, r25
    18d6:	98 f3       	brcs	.-26     	; 0x18be <delay_us+0x4a>
    18d8:	26 96       	adiw	r28, 0x06	; 6
    18da:	0f b6       	in	r0, 0x3f	; 63
    18dc:	f8 94       	cli
    18de:	de bf       	out	0x3e, r29	; 62
    18e0:	0f be       	out	0x3f, r0	; 63
    18e2:	cd bf       	out	0x3d, r28	; 61
    18e4:	df 91       	pop	r29
    18e6:	cf 91       	pop	r28
    18e8:	08 95       	ret

000018ea <timerInit>:
    18ea:	cf 93       	push	r28
    18ec:	df 93       	push	r29
    18ee:	cd b7       	in	r28, 0x3d	; 61
    18f0:	de b7       	in	r29, 0x3e	; 62
    18f2:	21 97       	sbiw	r28, 0x01	; 1
    18f4:	0f b6       	in	r0, 0x3f	; 63
    18f6:	f8 94       	cli
    18f8:	de bf       	out	0x3e, r29	; 62
    18fa:	0f be       	out	0x3f, r0	; 63
    18fc:	cd bf       	out	0x3d, r28	; 61
    18fe:	19 82       	std	Y+1, r1	; 0x01
    1900:	06 c0       	rjmp	.+12     	; 0x190e <timerInit+0x24>
    1902:	89 81       	ldd	r24, Y+1	; 0x01
    1904:	0e 94 d8 0d 	call	0x1bb0	; 0x1bb0 <timerDetach>
    1908:	89 81       	ldd	r24, Y+1	; 0x01
    190a:	8f 5f       	subi	r24, 0xFF	; 255
    190c:	89 83       	std	Y+1, r24	; 0x01
    190e:	89 81       	ldd	r24, Y+1	; 0x01
    1910:	87 30       	cpi	r24, 0x07	; 7
    1912:	b8 f3       	brcs	.-18     	; 0x1902 <timerInit+0x18>
    1914:	0e 94 9a 0c 	call	0x1934	; 0x1934 <timer0Init>
    1918:	0e 94 b0 0c 	call	0x1960	; 0x1960 <timer1Init>
    191c:	0e 94 c5 0c 	call	0x198a	; 0x198a <timer2Init>
    1920:	78 94       	sei
    1922:	21 96       	adiw	r28, 0x01	; 1
    1924:	0f b6       	in	r0, 0x3f	; 63
    1926:	f8 94       	cli
    1928:	de bf       	out	0x3e, r29	; 62
    192a:	0f be       	out	0x3f, r0	; 63
    192c:	cd bf       	out	0x3d, r28	; 61
    192e:	df 91       	pop	r29
    1930:	cf 91       	pop	r28
    1932:	08 95       	ret

00001934 <timer0Init>:
    1934:	cf 93       	push	r28
    1936:	df 93       	push	r29
    1938:	cd b7       	in	r28, 0x3d	; 61
    193a:	de b7       	in	r29, 0x3e	; 62
    193c:	82 e0       	ldi	r24, 0x02	; 2
    193e:	0e 94 db 0c 	call	0x19b6	; 0x19b6 <timer0SetPrescaler>
    1942:	e6 e4       	ldi	r30, 0x46	; 70
    1944:	f0 e0       	ldi	r31, 0x00	; 0
    1946:	10 82       	st	Z, r1
    1948:	ae e6       	ldi	r26, 0x6E	; 110
    194a:	b0 e0       	ldi	r27, 0x00	; 0
    194c:	ee e6       	ldi	r30, 0x6E	; 110
    194e:	f0 e0       	ldi	r31, 0x00	; 0
    1950:	80 81       	ld	r24, Z
    1952:	81 60       	ori	r24, 0x01	; 1
    1954:	8c 93       	st	X, r24
    1956:	0e 94 cf 0e 	call	0x1d9e	; 0x1d9e <timer0ClearOverflowCount>
    195a:	df 91       	pop	r29
    195c:	cf 91       	pop	r28
    195e:	08 95       	ret

00001960 <timer1Init>:
    1960:	cf 93       	push	r28
    1962:	df 93       	push	r29
    1964:	cd b7       	in	r28, 0x3d	; 61
    1966:	de b7       	in	r29, 0x3e	; 62
    1968:	83 e0       	ldi	r24, 0x03	; 3
    196a:	0e 94 f9 0c 	call	0x19f2	; 0x19f2 <timer1SetPrescaler>
    196e:	e4 e8       	ldi	r30, 0x84	; 132
    1970:	f0 e0       	ldi	r31, 0x00	; 0
    1972:	11 82       	std	Z+1, r1	; 0x01
    1974:	10 82       	st	Z, r1
    1976:	af e6       	ldi	r26, 0x6F	; 111
    1978:	b0 e0       	ldi	r27, 0x00	; 0
    197a:	ef e6       	ldi	r30, 0x6F	; 111
    197c:	f0 e0       	ldi	r31, 0x00	; 0
    197e:	80 81       	ld	r24, Z
    1980:	81 60       	ori	r24, 0x01	; 1
    1982:	8c 93       	st	X, r24
    1984:	df 91       	pop	r29
    1986:	cf 91       	pop	r28
    1988:	08 95       	ret

0000198a <timer2Init>:
    198a:	cf 93       	push	r28
    198c:	df 93       	push	r29
    198e:	cd b7       	in	r28, 0x3d	; 61
    1990:	de b7       	in	r29, 0x3e	; 62
    1992:	84 e0       	ldi	r24, 0x04	; 4
    1994:	0e 94 17 0d 	call	0x1a2e	; 0x1a2e <timer2SetPrescaler>
    1998:	e2 eb       	ldi	r30, 0xB2	; 178
    199a:	f0 e0       	ldi	r31, 0x00	; 0
    199c:	10 82       	st	Z, r1
    199e:	a0 e7       	ldi	r26, 0x70	; 112
    19a0:	b0 e0       	ldi	r27, 0x00	; 0
    19a2:	e0 e7       	ldi	r30, 0x70	; 112
    19a4:	f0 e0       	ldi	r31, 0x00	; 0
    19a6:	80 81       	ld	r24, Z
    19a8:	81 60       	ori	r24, 0x01	; 1
    19aa:	8c 93       	st	X, r24
    19ac:	0e 94 ef 0e 	call	0x1dde	; 0x1dde <timer2ClearOverflowCount>
    19b0:	df 91       	pop	r29
    19b2:	cf 91       	pop	r28
    19b4:	08 95       	ret

000019b6 <timer0SetPrescaler>:
    19b6:	cf 93       	push	r28
    19b8:	df 93       	push	r29
    19ba:	cd b7       	in	r28, 0x3d	; 61
    19bc:	de b7       	in	r29, 0x3e	; 62
    19be:	21 97       	sbiw	r28, 0x01	; 1
    19c0:	0f b6       	in	r0, 0x3f	; 63
    19c2:	f8 94       	cli
    19c4:	de bf       	out	0x3e, r29	; 62
    19c6:	0f be       	out	0x3f, r0	; 63
    19c8:	cd bf       	out	0x3d, r28	; 61
    19ca:	89 83       	std	Y+1, r24	; 0x01
    19cc:	a5 e4       	ldi	r26, 0x45	; 69
    19ce:	b0 e0       	ldi	r27, 0x00	; 0
    19d0:	e5 e4       	ldi	r30, 0x45	; 69
    19d2:	f0 e0       	ldi	r31, 0x00	; 0
    19d4:	80 81       	ld	r24, Z
    19d6:	98 2f       	mov	r25, r24
    19d8:	98 7f       	andi	r25, 0xF8	; 248
    19da:	89 81       	ldd	r24, Y+1	; 0x01
    19dc:	89 2b       	or	r24, r25
    19de:	8c 93       	st	X, r24
    19e0:	21 96       	adiw	r28, 0x01	; 1
    19e2:	0f b6       	in	r0, 0x3f	; 63
    19e4:	f8 94       	cli
    19e6:	de bf       	out	0x3e, r29	; 62
    19e8:	0f be       	out	0x3f, r0	; 63
    19ea:	cd bf       	out	0x3d, r28	; 61
    19ec:	df 91       	pop	r29
    19ee:	cf 91       	pop	r28
    19f0:	08 95       	ret

000019f2 <timer1SetPrescaler>:
    19f2:	cf 93       	push	r28
    19f4:	df 93       	push	r29
    19f6:	cd b7       	in	r28, 0x3d	; 61
    19f8:	de b7       	in	r29, 0x3e	; 62
    19fa:	21 97       	sbiw	r28, 0x01	; 1
    19fc:	0f b6       	in	r0, 0x3f	; 63
    19fe:	f8 94       	cli
    1a00:	de bf       	out	0x3e, r29	; 62
    1a02:	0f be       	out	0x3f, r0	; 63
    1a04:	cd bf       	out	0x3d, r28	; 61
    1a06:	89 83       	std	Y+1, r24	; 0x01
    1a08:	a1 e8       	ldi	r26, 0x81	; 129
    1a0a:	b0 e0       	ldi	r27, 0x00	; 0
    1a0c:	e1 e8       	ldi	r30, 0x81	; 129
    1a0e:	f0 e0       	ldi	r31, 0x00	; 0
    1a10:	80 81       	ld	r24, Z
    1a12:	98 2f       	mov	r25, r24
    1a14:	98 7f       	andi	r25, 0xF8	; 248
    1a16:	89 81       	ldd	r24, Y+1	; 0x01
    1a18:	89 2b       	or	r24, r25
    1a1a:	8c 93       	st	X, r24
    1a1c:	21 96       	adiw	r28, 0x01	; 1
    1a1e:	0f b6       	in	r0, 0x3f	; 63
    1a20:	f8 94       	cli
    1a22:	de bf       	out	0x3e, r29	; 62
    1a24:	0f be       	out	0x3f, r0	; 63
    1a26:	cd bf       	out	0x3d, r28	; 61
    1a28:	df 91       	pop	r29
    1a2a:	cf 91       	pop	r28
    1a2c:	08 95       	ret

00001a2e <timer2SetPrescaler>:
    1a2e:	cf 93       	push	r28
    1a30:	df 93       	push	r29
    1a32:	cd b7       	in	r28, 0x3d	; 61
    1a34:	de b7       	in	r29, 0x3e	; 62
    1a36:	21 97       	sbiw	r28, 0x01	; 1
    1a38:	0f b6       	in	r0, 0x3f	; 63
    1a3a:	f8 94       	cli
    1a3c:	de bf       	out	0x3e, r29	; 62
    1a3e:	0f be       	out	0x3f, r0	; 63
    1a40:	cd bf       	out	0x3d, r28	; 61
    1a42:	89 83       	std	Y+1, r24	; 0x01
    1a44:	a1 eb       	ldi	r26, 0xB1	; 177
    1a46:	b0 e0       	ldi	r27, 0x00	; 0
    1a48:	e1 eb       	ldi	r30, 0xB1	; 177
    1a4a:	f0 e0       	ldi	r31, 0x00	; 0
    1a4c:	80 81       	ld	r24, Z
    1a4e:	98 2f       	mov	r25, r24
    1a50:	98 7f       	andi	r25, 0xF8	; 248
    1a52:	89 81       	ldd	r24, Y+1	; 0x01
    1a54:	89 2b       	or	r24, r25
    1a56:	8c 93       	st	X, r24
    1a58:	21 96       	adiw	r28, 0x01	; 1
    1a5a:	0f b6       	in	r0, 0x3f	; 63
    1a5c:	f8 94       	cli
    1a5e:	de bf       	out	0x3e, r29	; 62
    1a60:	0f be       	out	0x3f, r0	; 63
    1a62:	cd bf       	out	0x3d, r28	; 61
    1a64:	df 91       	pop	r29
    1a66:	cf 91       	pop	r28
    1a68:	08 95       	ret

00001a6a <timer0GetPrescaler>:
    1a6a:	cf 93       	push	r28
    1a6c:	df 93       	push	r29
    1a6e:	cd b7       	in	r28, 0x3d	; 61
    1a70:	de b7       	in	r29, 0x3e	; 62
    1a72:	24 97       	sbiw	r28, 0x04	; 4
    1a74:	0f b6       	in	r0, 0x3f	; 63
    1a76:	f8 94       	cli
    1a78:	de bf       	out	0x3e, r29	; 62
    1a7a:	0f be       	out	0x3f, r0	; 63
    1a7c:	cd bf       	out	0x3d, r28	; 61
    1a7e:	e5 e4       	ldi	r30, 0x45	; 69
    1a80:	f0 e0       	ldi	r31, 0x00	; 0
    1a82:	80 81       	ld	r24, Z
    1a84:	88 2f       	mov	r24, r24
    1a86:	90 e0       	ldi	r25, 0x00	; 0
    1a88:	87 70       	andi	r24, 0x07	; 7
    1a8a:	90 70       	andi	r25, 0x00	; 0
    1a8c:	88 0f       	add	r24, r24
    1a8e:	99 1f       	adc	r25, r25
    1a90:	83 5b       	subi	r24, 0xB3	; 179
    1a92:	9e 4f       	sbci	r25, 0xFE	; 254
    1a94:	9c 83       	std	Y+4, r25	; 0x04
    1a96:	8b 83       	std	Y+3, r24	; 0x03
    1a98:	eb 81       	ldd	r30, Y+3	; 0x03
    1a9a:	fc 81       	ldd	r31, Y+4	; 0x04
    1a9c:	85 91       	lpm	r24, Z+
    1a9e:	94 91       	lpm	r25, Z
    1aa0:	9a 83       	std	Y+2, r25	; 0x02
    1aa2:	89 83       	std	Y+1, r24	; 0x01
    1aa4:	fc 83       	std	Y+4, r31	; 0x04
    1aa6:	eb 83       	std	Y+3, r30	; 0x03
    1aa8:	89 81       	ldd	r24, Y+1	; 0x01
    1aaa:	9a 81       	ldd	r25, Y+2	; 0x02
    1aac:	24 96       	adiw	r28, 0x04	; 4
    1aae:	0f b6       	in	r0, 0x3f	; 63
    1ab0:	f8 94       	cli
    1ab2:	de bf       	out	0x3e, r29	; 62
    1ab4:	0f be       	out	0x3f, r0	; 63
    1ab6:	cd bf       	out	0x3d, r28	; 61
    1ab8:	df 91       	pop	r29
    1aba:	cf 91       	pop	r28
    1abc:	08 95       	ret

00001abe <timer1GetPrescaler>:
    1abe:	cf 93       	push	r28
    1ac0:	df 93       	push	r29
    1ac2:	cd b7       	in	r28, 0x3d	; 61
    1ac4:	de b7       	in	r29, 0x3e	; 62
    1ac6:	24 97       	sbiw	r28, 0x04	; 4
    1ac8:	0f b6       	in	r0, 0x3f	; 63
    1aca:	f8 94       	cli
    1acc:	de bf       	out	0x3e, r29	; 62
    1ace:	0f be       	out	0x3f, r0	; 63
    1ad0:	cd bf       	out	0x3d, r28	; 61
    1ad2:	e1 e8       	ldi	r30, 0x81	; 129
    1ad4:	f0 e0       	ldi	r31, 0x00	; 0
    1ad6:	80 81       	ld	r24, Z
    1ad8:	88 2f       	mov	r24, r24
    1ada:	90 e0       	ldi	r25, 0x00	; 0
    1adc:	87 70       	andi	r24, 0x07	; 7
    1ade:	90 70       	andi	r25, 0x00	; 0
    1ae0:	88 0f       	add	r24, r24
    1ae2:	99 1f       	adc	r25, r25
    1ae4:	83 5b       	subi	r24, 0xB3	; 179
    1ae6:	9e 4f       	sbci	r25, 0xFE	; 254
    1ae8:	9c 83       	std	Y+4, r25	; 0x04
    1aea:	8b 83       	std	Y+3, r24	; 0x03
    1aec:	eb 81       	ldd	r30, Y+3	; 0x03
    1aee:	fc 81       	ldd	r31, Y+4	; 0x04
    1af0:	85 91       	lpm	r24, Z+
    1af2:	94 91       	lpm	r25, Z
    1af4:	9a 83       	std	Y+2, r25	; 0x02
    1af6:	89 83       	std	Y+1, r24	; 0x01
    1af8:	fc 83       	std	Y+4, r31	; 0x04
    1afa:	eb 83       	std	Y+3, r30	; 0x03
    1afc:	89 81       	ldd	r24, Y+1	; 0x01
    1afe:	9a 81       	ldd	r25, Y+2	; 0x02
    1b00:	24 96       	adiw	r28, 0x04	; 4
    1b02:	0f b6       	in	r0, 0x3f	; 63
    1b04:	f8 94       	cli
    1b06:	de bf       	out	0x3e, r29	; 62
    1b08:	0f be       	out	0x3f, r0	; 63
    1b0a:	cd bf       	out	0x3d, r28	; 61
    1b0c:	df 91       	pop	r29
    1b0e:	cf 91       	pop	r28
    1b10:	08 95       	ret

00001b12 <timer2GetPrescaler>:
    1b12:	cf 93       	push	r28
    1b14:	df 93       	push	r29
    1b16:	cd b7       	in	r28, 0x3d	; 61
    1b18:	de b7       	in	r29, 0x3e	; 62
    1b1a:	24 97       	sbiw	r28, 0x04	; 4
    1b1c:	0f b6       	in	r0, 0x3f	; 63
    1b1e:	f8 94       	cli
    1b20:	de bf       	out	0x3e, r29	; 62
    1b22:	0f be       	out	0x3f, r0	; 63
    1b24:	cd bf       	out	0x3d, r28	; 61
    1b26:	e1 eb       	ldi	r30, 0xB1	; 177
    1b28:	f0 e0       	ldi	r31, 0x00	; 0
    1b2a:	80 81       	ld	r24, Z
    1b2c:	88 2f       	mov	r24, r24
    1b2e:	90 e0       	ldi	r25, 0x00	; 0
    1b30:	87 70       	andi	r24, 0x07	; 7
    1b32:	90 70       	andi	r25, 0x00	; 0
    1b34:	88 0f       	add	r24, r24
    1b36:	99 1f       	adc	r25, r25
    1b38:	87 5a       	subi	r24, 0xA7	; 167
    1b3a:	9e 4f       	sbci	r25, 0xFE	; 254
    1b3c:	9c 83       	std	Y+4, r25	; 0x04
    1b3e:	8b 83       	std	Y+3, r24	; 0x03
    1b40:	eb 81       	ldd	r30, Y+3	; 0x03
    1b42:	fc 81       	ldd	r31, Y+4	; 0x04
    1b44:	85 91       	lpm	r24, Z+
    1b46:	94 91       	lpm	r25, Z
    1b48:	9a 83       	std	Y+2, r25	; 0x02
    1b4a:	89 83       	std	Y+1, r24	; 0x01
    1b4c:	fc 83       	std	Y+4, r31	; 0x04
    1b4e:	eb 83       	std	Y+3, r30	; 0x03
    1b50:	89 81       	ldd	r24, Y+1	; 0x01
    1b52:	9a 81       	ldd	r25, Y+2	; 0x02
    1b54:	24 96       	adiw	r28, 0x04	; 4
    1b56:	0f b6       	in	r0, 0x3f	; 63
    1b58:	f8 94       	cli
    1b5a:	de bf       	out	0x3e, r29	; 62
    1b5c:	0f be       	out	0x3f, r0	; 63
    1b5e:	cd bf       	out	0x3d, r28	; 61
    1b60:	df 91       	pop	r29
    1b62:	cf 91       	pop	r28
    1b64:	08 95       	ret

00001b66 <timerAttach>:
    1b66:	cf 93       	push	r28
    1b68:	df 93       	push	r29
    1b6a:	cd b7       	in	r28, 0x3d	; 61
    1b6c:	de b7       	in	r29, 0x3e	; 62
    1b6e:	23 97       	sbiw	r28, 0x03	; 3
    1b70:	0f b6       	in	r0, 0x3f	; 63
    1b72:	f8 94       	cli
    1b74:	de bf       	out	0x3e, r29	; 62
    1b76:	0f be       	out	0x3f, r0	; 63
    1b78:	cd bf       	out	0x3d, r28	; 61
    1b7a:	89 83       	std	Y+1, r24	; 0x01
    1b7c:	7b 83       	std	Y+3, r23	; 0x03
    1b7e:	6a 83       	std	Y+2, r22	; 0x02
    1b80:	89 81       	ldd	r24, Y+1	; 0x01
    1b82:	87 30       	cpi	r24, 0x07	; 7
    1b84:	60 f4       	brcc	.+24     	; 0x1b9e <timerAttach+0x38>
    1b86:	89 81       	ldd	r24, Y+1	; 0x01
    1b88:	88 2f       	mov	r24, r24
    1b8a:	90 e0       	ldi	r25, 0x00	; 0
    1b8c:	88 0f       	add	r24, r24
    1b8e:	99 1f       	adc	r25, r25
    1b90:	fc 01       	movw	r30, r24
    1b92:	e8 5e       	subi	r30, 0xE8	; 232
    1b94:	fe 4f       	sbci	r31, 0xFE	; 254
    1b96:	8a 81       	ldd	r24, Y+2	; 0x02
    1b98:	9b 81       	ldd	r25, Y+3	; 0x03
    1b9a:	91 83       	std	Z+1, r25	; 0x01
    1b9c:	80 83       	st	Z, r24
    1b9e:	23 96       	adiw	r28, 0x03	; 3
    1ba0:	0f b6       	in	r0, 0x3f	; 63
    1ba2:	f8 94       	cli
    1ba4:	de bf       	out	0x3e, r29	; 62
    1ba6:	0f be       	out	0x3f, r0	; 63
    1ba8:	cd bf       	out	0x3d, r28	; 61
    1baa:	df 91       	pop	r29
    1bac:	cf 91       	pop	r28
    1bae:	08 95       	ret

00001bb0 <timerDetach>:
    1bb0:	cf 93       	push	r28
    1bb2:	df 93       	push	r29
    1bb4:	cd b7       	in	r28, 0x3d	; 61
    1bb6:	de b7       	in	r29, 0x3e	; 62
    1bb8:	21 97       	sbiw	r28, 0x01	; 1
    1bba:	0f b6       	in	r0, 0x3f	; 63
    1bbc:	f8 94       	cli
    1bbe:	de bf       	out	0x3e, r29	; 62
    1bc0:	0f be       	out	0x3f, r0	; 63
    1bc2:	cd bf       	out	0x3d, r28	; 61
    1bc4:	89 83       	std	Y+1, r24	; 0x01
    1bc6:	89 81       	ldd	r24, Y+1	; 0x01
    1bc8:	87 30       	cpi	r24, 0x07	; 7
    1bca:	50 f4       	brcc	.+20     	; 0x1be0 <timerDetach+0x30>
    1bcc:	89 81       	ldd	r24, Y+1	; 0x01
    1bce:	88 2f       	mov	r24, r24
    1bd0:	90 e0       	ldi	r25, 0x00	; 0
    1bd2:	88 0f       	add	r24, r24
    1bd4:	99 1f       	adc	r25, r25
    1bd6:	fc 01       	movw	r30, r24
    1bd8:	e8 5e       	subi	r30, 0xE8	; 232
    1bda:	fe 4f       	sbci	r31, 0xFE	; 254
    1bdc:	11 82       	std	Z+1, r1	; 0x01
    1bde:	10 82       	st	Z, r1
    1be0:	21 96       	adiw	r28, 0x01	; 1
    1be2:	0f b6       	in	r0, 0x3f	; 63
    1be4:	f8 94       	cli
    1be6:	de bf       	out	0x3e, r29	; 62
    1be8:	0f be       	out	0x3f, r0	; 63
    1bea:	cd bf       	out	0x3d, r28	; 61
    1bec:	df 91       	pop	r29
    1bee:	cf 91       	pop	r28
    1bf0:	08 95       	ret

00001bf2 <timerPause>:
    1bf2:	ef 92       	push	r14
    1bf4:	ff 92       	push	r15
    1bf6:	0f 93       	push	r16
    1bf8:	1f 93       	push	r17
    1bfa:	cf 93       	push	r28
    1bfc:	df 93       	push	r29
    1bfe:	cd b7       	in	r28, 0x3d	; 61
    1c00:	de b7       	in	r29, 0x3e	; 62
    1c02:	2b 97       	sbiw	r28, 0x0b	; 11
    1c04:	0f b6       	in	r0, 0x3f	; 63
    1c06:	f8 94       	cli
    1c08:	de bf       	out	0x3e, r29	; 62
    1c0a:	0f be       	out	0x3f, r0	; 63
    1c0c:	cd bf       	out	0x3d, r28	; 61
    1c0e:	9b 87       	std	Y+11, r25	; 0x0b
    1c10:	8a 87       	std	Y+10, r24	; 0x0a
    1c12:	e6 e4       	ldi	r30, 0x46	; 70
    1c14:	f0 e0       	ldi	r31, 0x00	; 0
    1c16:	80 81       	ld	r24, Z
    1c18:	89 87       	std	Y+9, r24	; 0x09
    1c1a:	10 92 91 02 	sts	0x0291, r1
    1c1e:	10 92 92 02 	sts	0x0292, r1
    1c22:	10 92 93 02 	sts	0x0293, r1
    1c26:	10 92 94 02 	sts	0x0294, r1
    1c2a:	0e 94 35 0d 	call	0x1a6a	; 0x1a6a <timer0GetPrescaler>
    1c2e:	9c 01       	movw	r18, r24
    1c30:	40 e0       	ldi	r20, 0x00	; 0
    1c32:	50 e0       	ldi	r21, 0x00	; 0
    1c34:	80 e0       	ldi	r24, 0x00	; 0
    1c36:	90 e4       	ldi	r25, 0x40	; 64
    1c38:	a8 e3       	ldi	r26, 0x38	; 56
    1c3a:	b0 e0       	ldi	r27, 0x00	; 0
    1c3c:	bc 01       	movw	r22, r24
    1c3e:	cd 01       	movw	r24, r26
    1c40:	0e 94 83 1b 	call	0x3706	; 0x3706 <__divmodsi4>
    1c44:	da 01       	movw	r26, r20
    1c46:	c9 01       	movw	r24, r18
    1c48:	8d 83       	std	Y+5, r24	; 0x05
    1c4a:	9e 83       	std	Y+6, r25	; 0x06
    1c4c:	af 83       	std	Y+7, r26	; 0x07
    1c4e:	b8 87       	std	Y+8, r27	; 0x08
    1c50:	8d 81       	ldd	r24, Y+5	; 0x05
    1c52:	9e 81       	ldd	r25, Y+6	; 0x06
    1c54:	af 81       	ldd	r26, Y+7	; 0x07
    1c56:	b8 85       	ldd	r27, Y+8	; 0x08
    1c58:	89 3b       	cpi	r24, 0xB9	; 185
    1c5a:	2d e8       	ldi	r18, 0x8D	; 141
    1c5c:	92 07       	cpc	r25, r18
    1c5e:	26 e0       	ldi	r18, 0x06	; 6
    1c60:	a2 07       	cpc	r26, r18
    1c62:	20 e0       	ldi	r18, 0x00	; 0
    1c64:	b2 07       	cpc	r27, r18
    1c66:	20 f5       	brcc	.+72     	; 0x1cb0 <timerPause+0xbe>
    1c68:	8a 85       	ldd	r24, Y+10	; 0x0a
    1c6a:	9b 85       	ldd	r25, Y+11	; 0x0b
    1c6c:	27 e2       	ldi	r18, 0x27	; 39
    1c6e:	81 31       	cpi	r24, 0x11	; 17
    1c70:	92 07       	cpc	r25, r18
    1c72:	f0 f4       	brcc	.+60     	; 0x1cb0 <timerPause+0xbe>
    1c74:	8a 85       	ldd	r24, Y+10	; 0x0a
    1c76:	9b 85       	ldd	r25, Y+11	; 0x0b
    1c78:	cc 01       	movw	r24, r24
    1c7a:	a0 e0       	ldi	r26, 0x00	; 0
    1c7c:	b0 e0       	ldi	r27, 0x00	; 0
    1c7e:	2d 81       	ldd	r18, Y+5	; 0x05
    1c80:	3e 81       	ldd	r19, Y+6	; 0x06
    1c82:	4f 81       	ldd	r20, Y+7	; 0x07
    1c84:	58 85       	ldd	r21, Y+8	; 0x08
    1c86:	bc 01       	movw	r22, r24
    1c88:	cd 01       	movw	r24, r26
    1c8a:	0e 94 1b 1b 	call	0x3636	; 0x3636 <__mulsi3>
    1c8e:	dc 01       	movw	r26, r24
    1c90:	cb 01       	movw	r24, r22
    1c92:	28 ee       	ldi	r18, 0xE8	; 232
    1c94:	33 e0       	ldi	r19, 0x03	; 3
    1c96:	40 e0       	ldi	r20, 0x00	; 0
    1c98:	50 e0       	ldi	r21, 0x00	; 0
    1c9a:	bc 01       	movw	r22, r24
    1c9c:	cd 01       	movw	r24, r26
    1c9e:	0e 94 61 1b 	call	0x36c2	; 0x36c2 <__udivmodsi4>
    1ca2:	da 01       	movw	r26, r20
    1ca4:	c9 01       	movw	r24, r18
    1ca6:	89 83       	std	Y+1, r24	; 0x01
    1ca8:	9a 83       	std	Y+2, r25	; 0x02
    1caa:	ab 83       	std	Y+3, r26	; 0x03
    1cac:	bc 83       	std	Y+4, r27	; 0x04
    1cae:	3e c0       	rjmp	.+124    	; 0x1d2c <timerPause+0x13a>
    1cb0:	8a 85       	ldd	r24, Y+10	; 0x0a
    1cb2:	9b 85       	ldd	r25, Y+11	; 0x0b
    1cb4:	7c 01       	movw	r14, r24
    1cb6:	00 e0       	ldi	r16, 0x00	; 0
    1cb8:	10 e0       	ldi	r17, 0x00	; 0
    1cba:	8d 81       	ldd	r24, Y+5	; 0x05
    1cbc:	9e 81       	ldd	r25, Y+6	; 0x06
    1cbe:	af 81       	ldd	r26, Y+7	; 0x07
    1cc0:	b8 85       	ldd	r27, Y+8	; 0x08
    1cc2:	28 ee       	ldi	r18, 0xE8	; 232
    1cc4:	33 e0       	ldi	r19, 0x03	; 3
    1cc6:	40 e0       	ldi	r20, 0x00	; 0
    1cc8:	50 e0       	ldi	r21, 0x00	; 0
    1cca:	bc 01       	movw	r22, r24
    1ccc:	cd 01       	movw	r24, r26
    1cce:	0e 94 61 1b 	call	0x36c2	; 0x36c2 <__udivmodsi4>
    1cd2:	da 01       	movw	r26, r20
    1cd4:	c9 01       	movw	r24, r18
    1cd6:	9c 01       	movw	r18, r24
    1cd8:	ad 01       	movw	r20, r26
    1cda:	c8 01       	movw	r24, r16
    1cdc:	b7 01       	movw	r22, r14
    1cde:	0e 94 1b 1b 	call	0x3636	; 0x3636 <__mulsi3>
    1ce2:	dc 01       	movw	r26, r24
    1ce4:	cb 01       	movw	r24, r22
    1ce6:	89 83       	std	Y+1, r24	; 0x01
    1ce8:	9a 83       	std	Y+2, r25	; 0x02
    1cea:	ab 83       	std	Y+3, r26	; 0x03
    1cec:	bc 83       	std	Y+4, r27	; 0x04
    1cee:	1e c0       	rjmp	.+60     	; 0x1d2c <timerPause+0x13a>
    1cf0:	80 91 91 02 	lds	r24, 0x0291
    1cf4:	90 91 92 02 	lds	r25, 0x0292
    1cf8:	a0 91 93 02 	lds	r26, 0x0293
    1cfc:	b0 91 94 02 	lds	r27, 0x0294
    1d00:	a3 e5       	ldi	r26, 0x53	; 83
    1d02:	b0 e0       	ldi	r27, 0x00	; 0
    1d04:	e3 e5       	ldi	r30, 0x53	; 83
    1d06:	f0 e0       	ldi	r31, 0x00	; 0
    1d08:	80 81       	ld	r24, Z
    1d0a:	81 7f       	andi	r24, 0xF1	; 241
    1d0c:	8c 93       	st	X, r24
    1d0e:	a3 e5       	ldi	r26, 0x53	; 83
    1d10:	b0 e0       	ldi	r27, 0x00	; 0
    1d12:	e3 e5       	ldi	r30, 0x53	; 83
    1d14:	f0 e0       	ldi	r31, 0x00	; 0
    1d16:	80 81       	ld	r24, Z
    1d18:	81 60       	ori	r24, 0x01	; 1
    1d1a:	8c 93       	st	X, r24
    1d1c:	88 95       	sleep
    1d1e:	a3 e5       	ldi	r26, 0x53	; 83
    1d20:	b0 e0       	ldi	r27, 0x00	; 0
    1d22:	e3 e5       	ldi	r30, 0x53	; 83
    1d24:	f0 e0       	ldi	r31, 0x00	; 0
    1d26:	80 81       	ld	r24, Z
    1d28:	8e 7f       	andi	r24, 0xFE	; 254
    1d2a:	8c 93       	st	X, r24
    1d2c:	80 91 91 02 	lds	r24, 0x0291
    1d30:	90 91 92 02 	lds	r25, 0x0292
    1d34:	a0 91 93 02 	lds	r26, 0x0293
    1d38:	b0 91 94 02 	lds	r27, 0x0294
    1d3c:	22 27       	eor	r18, r18
    1d3e:	38 2f       	mov	r19, r24
    1d40:	49 2f       	mov	r20, r25
    1d42:	5a 2f       	mov	r21, r26
    1d44:	e6 e4       	ldi	r30, 0x46	; 70
    1d46:	f0 e0       	ldi	r31, 0x00	; 0
    1d48:	80 81       	ld	r24, Z
    1d4a:	88 2f       	mov	r24, r24
    1d4c:	90 e0       	ldi	r25, 0x00	; 0
    1d4e:	a0 e0       	ldi	r26, 0x00	; 0
    1d50:	b0 e0       	ldi	r27, 0x00	; 0
    1d52:	79 01       	movw	r14, r18
    1d54:	8a 01       	movw	r16, r20
    1d56:	e8 2a       	or	r14, r24
    1d58:	f9 2a       	or	r15, r25
    1d5a:	0a 2b       	or	r16, r26
    1d5c:	1b 2b       	or	r17, r27
    1d5e:	89 85       	ldd	r24, Y+9	; 0x09
    1d60:	28 2f       	mov	r18, r24
    1d62:	30 e0       	ldi	r19, 0x00	; 0
    1d64:	40 e0       	ldi	r20, 0x00	; 0
    1d66:	50 e0       	ldi	r21, 0x00	; 0
    1d68:	89 81       	ldd	r24, Y+1	; 0x01
    1d6a:	9a 81       	ldd	r25, Y+2	; 0x02
    1d6c:	ab 81       	ldd	r26, Y+3	; 0x03
    1d6e:	bc 81       	ldd	r27, Y+4	; 0x04
    1d70:	82 0f       	add	r24, r18
    1d72:	93 1f       	adc	r25, r19
    1d74:	a4 1f       	adc	r26, r20
    1d76:	b5 1f       	adc	r27, r21
    1d78:	e8 16       	cp	r14, r24
    1d7a:	f9 06       	cpc	r15, r25
    1d7c:	0a 07       	cpc	r16, r26
    1d7e:	1b 07       	cpc	r17, r27
    1d80:	08 f4       	brcc	.+2      	; 0x1d84 <timerPause+0x192>
    1d82:	b6 cf       	rjmp	.-148    	; 0x1cf0 <timerPause+0xfe>
    1d84:	2b 96       	adiw	r28, 0x0b	; 11
    1d86:	0f b6       	in	r0, 0x3f	; 63
    1d88:	f8 94       	cli
    1d8a:	de bf       	out	0x3e, r29	; 62
    1d8c:	0f be       	out	0x3f, r0	; 63
    1d8e:	cd bf       	out	0x3d, r28	; 61
    1d90:	df 91       	pop	r29
    1d92:	cf 91       	pop	r28
    1d94:	1f 91       	pop	r17
    1d96:	0f 91       	pop	r16
    1d98:	ff 90       	pop	r15
    1d9a:	ef 90       	pop	r14
    1d9c:	08 95       	ret

00001d9e <timer0ClearOverflowCount>:
    1d9e:	cf 93       	push	r28
    1da0:	df 93       	push	r29
    1da2:	cd b7       	in	r28, 0x3d	; 61
    1da4:	de b7       	in	r29, 0x3e	; 62
    1da6:	10 92 8d 02 	sts	0x028D, r1
    1daa:	10 92 8e 02 	sts	0x028E, r1
    1dae:	10 92 8f 02 	sts	0x028F, r1
    1db2:	10 92 90 02 	sts	0x0290, r1
    1db6:	df 91       	pop	r29
    1db8:	cf 91       	pop	r28
    1dba:	08 95       	ret

00001dbc <timer0GetOverflowCount>:
    1dbc:	cf 93       	push	r28
    1dbe:	df 93       	push	r29
    1dc0:	cd b7       	in	r28, 0x3d	; 61
    1dc2:	de b7       	in	r29, 0x3e	; 62
    1dc4:	80 91 8d 02 	lds	r24, 0x028D
    1dc8:	90 91 8e 02 	lds	r25, 0x028E
    1dcc:	a0 91 8f 02 	lds	r26, 0x028F
    1dd0:	b0 91 90 02 	lds	r27, 0x0290
    1dd4:	bc 01       	movw	r22, r24
    1dd6:	cd 01       	movw	r24, r26
    1dd8:	df 91       	pop	r29
    1dda:	cf 91       	pop	r28
    1ddc:	08 95       	ret

00001dde <timer2ClearOverflowCount>:
    1dde:	cf 93       	push	r28
    1de0:	df 93       	push	r29
    1de2:	cd b7       	in	r28, 0x3d	; 61
    1de4:	de b7       	in	r29, 0x3e	; 62
    1de6:	10 92 95 02 	sts	0x0295, r1
    1dea:	10 92 96 02 	sts	0x0296, r1
    1dee:	10 92 97 02 	sts	0x0297, r1
    1df2:	10 92 98 02 	sts	0x0298, r1
    1df6:	df 91       	pop	r29
    1df8:	cf 91       	pop	r28
    1dfa:	08 95       	ret

00001dfc <timer2GetOverflowCount>:
    1dfc:	cf 93       	push	r28
    1dfe:	df 93       	push	r29
    1e00:	cd b7       	in	r28, 0x3d	; 61
    1e02:	de b7       	in	r29, 0x3e	; 62
    1e04:	80 91 95 02 	lds	r24, 0x0295
    1e08:	90 91 96 02 	lds	r25, 0x0296
    1e0c:	a0 91 97 02 	lds	r26, 0x0297
    1e10:	b0 91 98 02 	lds	r27, 0x0298
    1e14:	bc 01       	movw	r22, r24
    1e16:	cd 01       	movw	r24, r26
    1e18:	df 91       	pop	r29
    1e1a:	cf 91       	pop	r28
    1e1c:	08 95       	ret

00001e1e <timer1PWMInit>:
    1e1e:	cf 93       	push	r28
    1e20:	df 93       	push	r29
    1e22:	cd b7       	in	r28, 0x3d	; 61
    1e24:	de b7       	in	r29, 0x3e	; 62
    1e26:	21 97       	sbiw	r28, 0x01	; 1
    1e28:	0f b6       	in	r0, 0x3f	; 63
    1e2a:	f8 94       	cli
    1e2c:	de bf       	out	0x3e, r29	; 62
    1e2e:	0f be       	out	0x3f, r0	; 63
    1e30:	cd bf       	out	0x3d, r28	; 61
    1e32:	89 83       	std	Y+1, r24	; 0x01
    1e34:	89 81       	ldd	r24, Y+1	; 0x01
    1e36:	89 30       	cpi	r24, 0x09	; 9
    1e38:	79 f4       	brne	.+30     	; 0x1e58 <timer1PWMInit+0x3a>
    1e3a:	a0 e8       	ldi	r26, 0x80	; 128
    1e3c:	b0 e0       	ldi	r27, 0x00	; 0
    1e3e:	e0 e8       	ldi	r30, 0x80	; 128
    1e40:	f0 e0       	ldi	r31, 0x00	; 0
    1e42:	80 81       	ld	r24, Z
    1e44:	82 60       	ori	r24, 0x02	; 2
    1e46:	8c 93       	st	X, r24
    1e48:	a0 e8       	ldi	r26, 0x80	; 128
    1e4a:	b0 e0       	ldi	r27, 0x00	; 0
    1e4c:	e0 e8       	ldi	r30, 0x80	; 128
    1e4e:	f0 e0       	ldi	r31, 0x00	; 0
    1e50:	80 81       	ld	r24, Z
    1e52:	8e 7f       	andi	r24, 0xFE	; 254
    1e54:	8c 93       	st	X, r24
    1e56:	20 c0       	rjmp	.+64     	; 0x1e98 <timer1PWMInit+0x7a>
    1e58:	89 81       	ldd	r24, Y+1	; 0x01
    1e5a:	8a 30       	cpi	r24, 0x0A	; 10
    1e5c:	79 f4       	brne	.+30     	; 0x1e7c <timer1PWMInit+0x5e>
    1e5e:	a0 e8       	ldi	r26, 0x80	; 128
    1e60:	b0 e0       	ldi	r27, 0x00	; 0
    1e62:	e0 e8       	ldi	r30, 0x80	; 128
    1e64:	f0 e0       	ldi	r31, 0x00	; 0
    1e66:	80 81       	ld	r24, Z
    1e68:	82 60       	ori	r24, 0x02	; 2
    1e6a:	8c 93       	st	X, r24
    1e6c:	a0 e8       	ldi	r26, 0x80	; 128
    1e6e:	b0 e0       	ldi	r27, 0x00	; 0
    1e70:	e0 e8       	ldi	r30, 0x80	; 128
    1e72:	f0 e0       	ldi	r31, 0x00	; 0
    1e74:	80 81       	ld	r24, Z
    1e76:	81 60       	ori	r24, 0x01	; 1
    1e78:	8c 93       	st	X, r24
    1e7a:	0e c0       	rjmp	.+28     	; 0x1e98 <timer1PWMInit+0x7a>
    1e7c:	a0 e8       	ldi	r26, 0x80	; 128
    1e7e:	b0 e0       	ldi	r27, 0x00	; 0
    1e80:	e0 e8       	ldi	r30, 0x80	; 128
    1e82:	f0 e0       	ldi	r31, 0x00	; 0
    1e84:	80 81       	ld	r24, Z
    1e86:	8d 7f       	andi	r24, 0xFD	; 253
    1e88:	8c 93       	st	X, r24
    1e8a:	a0 e8       	ldi	r26, 0x80	; 128
    1e8c:	b0 e0       	ldi	r27, 0x00	; 0
    1e8e:	e0 e8       	ldi	r30, 0x80	; 128
    1e90:	f0 e0       	ldi	r31, 0x00	; 0
    1e92:	80 81       	ld	r24, Z
    1e94:	81 60       	ori	r24, 0x01	; 1
    1e96:	8c 93       	st	X, r24
    1e98:	e8 e8       	ldi	r30, 0x88	; 136
    1e9a:	f0 e0       	ldi	r31, 0x00	; 0
    1e9c:	11 82       	std	Z+1, r1	; 0x01
    1e9e:	10 82       	st	Z, r1
    1ea0:	ea e8       	ldi	r30, 0x8A	; 138
    1ea2:	f0 e0       	ldi	r31, 0x00	; 0
    1ea4:	11 82       	std	Z+1, r1	; 0x01
    1ea6:	10 82       	st	Z, r1
    1ea8:	21 96       	adiw	r28, 0x01	; 1
    1eaa:	0f b6       	in	r0, 0x3f	; 63
    1eac:	f8 94       	cli
    1eae:	de bf       	out	0x3e, r29	; 62
    1eb0:	0f be       	out	0x3f, r0	; 63
    1eb2:	cd bf       	out	0x3d, r28	; 61
    1eb4:	df 91       	pop	r29
    1eb6:	cf 91       	pop	r28
    1eb8:	08 95       	ret

00001eba <timer1PWMInitICR>:
    1eba:	cf 93       	push	r28
    1ebc:	df 93       	push	r29
    1ebe:	cd b7       	in	r28, 0x3d	; 61
    1ec0:	de b7       	in	r29, 0x3e	; 62
    1ec2:	22 97       	sbiw	r28, 0x02	; 2
    1ec4:	0f b6       	in	r0, 0x3f	; 63
    1ec6:	f8 94       	cli
    1ec8:	de bf       	out	0x3e, r29	; 62
    1eca:	0f be       	out	0x3f, r0	; 63
    1ecc:	cd bf       	out	0x3d, r28	; 61
    1ece:	9a 83       	std	Y+2, r25	; 0x02
    1ed0:	89 83       	std	Y+1, r24	; 0x01
    1ed2:	a0 e8       	ldi	r26, 0x80	; 128
    1ed4:	b0 e0       	ldi	r27, 0x00	; 0
    1ed6:	e0 e8       	ldi	r30, 0x80	; 128
    1ed8:	f0 e0       	ldi	r31, 0x00	; 0
    1eda:	80 81       	ld	r24, Z
    1edc:	8e 7f       	andi	r24, 0xFE	; 254
    1ede:	8c 93       	st	X, r24
    1ee0:	a0 e8       	ldi	r26, 0x80	; 128
    1ee2:	b0 e0       	ldi	r27, 0x00	; 0
    1ee4:	e0 e8       	ldi	r30, 0x80	; 128
    1ee6:	f0 e0       	ldi	r31, 0x00	; 0
    1ee8:	80 81       	ld	r24, Z
    1eea:	82 60       	ori	r24, 0x02	; 2
    1eec:	8c 93       	st	X, r24
    1eee:	a1 e8       	ldi	r26, 0x81	; 129
    1ef0:	b0 e0       	ldi	r27, 0x00	; 0
    1ef2:	e1 e8       	ldi	r30, 0x81	; 129
    1ef4:	f0 e0       	ldi	r31, 0x00	; 0
    1ef6:	80 81       	ld	r24, Z
    1ef8:	88 60       	ori	r24, 0x08	; 8
    1efa:	8c 93       	st	X, r24
    1efc:	a1 e8       	ldi	r26, 0x81	; 129
    1efe:	b0 e0       	ldi	r27, 0x00	; 0
    1f00:	e1 e8       	ldi	r30, 0x81	; 129
    1f02:	f0 e0       	ldi	r31, 0x00	; 0
    1f04:	80 81       	ld	r24, Z
    1f06:	80 61       	ori	r24, 0x10	; 16
    1f08:	8c 93       	st	X, r24
    1f0a:	e6 e8       	ldi	r30, 0x86	; 134
    1f0c:	f0 e0       	ldi	r31, 0x00	; 0
    1f0e:	89 81       	ldd	r24, Y+1	; 0x01
    1f10:	9a 81       	ldd	r25, Y+2	; 0x02
    1f12:	91 83       	std	Z+1, r25	; 0x01
    1f14:	80 83       	st	Z, r24
    1f16:	e8 e8       	ldi	r30, 0x88	; 136
    1f18:	f0 e0       	ldi	r31, 0x00	; 0
    1f1a:	11 82       	std	Z+1, r1	; 0x01
    1f1c:	10 82       	st	Z, r1
    1f1e:	ea e8       	ldi	r30, 0x8A	; 138
    1f20:	f0 e0       	ldi	r31, 0x00	; 0
    1f22:	11 82       	std	Z+1, r1	; 0x01
    1f24:	10 82       	st	Z, r1
    1f26:	22 96       	adiw	r28, 0x02	; 2
    1f28:	0f b6       	in	r0, 0x3f	; 63
    1f2a:	f8 94       	cli
    1f2c:	de bf       	out	0x3e, r29	; 62
    1f2e:	0f be       	out	0x3f, r0	; 63
    1f30:	cd bf       	out	0x3d, r28	; 61
    1f32:	df 91       	pop	r29
    1f34:	cf 91       	pop	r28
    1f36:	08 95       	ret

00001f38 <timer1PWMOff>:
    1f38:	cf 93       	push	r28
    1f3a:	df 93       	push	r29
    1f3c:	cd b7       	in	r28, 0x3d	; 61
    1f3e:	de b7       	in	r29, 0x3e	; 62
    1f40:	a0 e8       	ldi	r26, 0x80	; 128
    1f42:	b0 e0       	ldi	r27, 0x00	; 0
    1f44:	e0 e8       	ldi	r30, 0x80	; 128
    1f46:	f0 e0       	ldi	r31, 0x00	; 0
    1f48:	80 81       	ld	r24, Z
    1f4a:	8d 7f       	andi	r24, 0xFD	; 253
    1f4c:	8c 93       	st	X, r24
    1f4e:	a0 e8       	ldi	r26, 0x80	; 128
    1f50:	b0 e0       	ldi	r27, 0x00	; 0
    1f52:	e0 e8       	ldi	r30, 0x80	; 128
    1f54:	f0 e0       	ldi	r31, 0x00	; 0
    1f56:	80 81       	ld	r24, Z
    1f58:	8e 7f       	andi	r24, 0xFE	; 254
    1f5a:	8c 93       	st	X, r24
    1f5c:	0e 94 df 0f 	call	0x1fbe	; 0x1fbe <timer1PWMAOff>
    1f60:	0e 94 f5 0f 	call	0x1fea	; 0x1fea <timer1PWMBOff>
    1f64:	df 91       	pop	r29
    1f66:	cf 91       	pop	r28
    1f68:	08 95       	ret

00001f6a <timer1PWMAOn>:
    1f6a:	cf 93       	push	r28
    1f6c:	df 93       	push	r29
    1f6e:	cd b7       	in	r28, 0x3d	; 61
    1f70:	de b7       	in	r29, 0x3e	; 62
    1f72:	a0 e8       	ldi	r26, 0x80	; 128
    1f74:	b0 e0       	ldi	r27, 0x00	; 0
    1f76:	e0 e8       	ldi	r30, 0x80	; 128
    1f78:	f0 e0       	ldi	r31, 0x00	; 0
    1f7a:	80 81       	ld	r24, Z
    1f7c:	80 68       	ori	r24, 0x80	; 128
    1f7e:	8c 93       	st	X, r24
    1f80:	a0 e8       	ldi	r26, 0x80	; 128
    1f82:	b0 e0       	ldi	r27, 0x00	; 0
    1f84:	e0 e8       	ldi	r30, 0x80	; 128
    1f86:	f0 e0       	ldi	r31, 0x00	; 0
    1f88:	80 81       	ld	r24, Z
    1f8a:	8f 7b       	andi	r24, 0xBF	; 191
    1f8c:	8c 93       	st	X, r24
    1f8e:	df 91       	pop	r29
    1f90:	cf 91       	pop	r28
    1f92:	08 95       	ret

00001f94 <timer1PWMBOn>:
    1f94:	cf 93       	push	r28
    1f96:	df 93       	push	r29
    1f98:	cd b7       	in	r28, 0x3d	; 61
    1f9a:	de b7       	in	r29, 0x3e	; 62
    1f9c:	a0 e8       	ldi	r26, 0x80	; 128
    1f9e:	b0 e0       	ldi	r27, 0x00	; 0
    1fa0:	e0 e8       	ldi	r30, 0x80	; 128
    1fa2:	f0 e0       	ldi	r31, 0x00	; 0
    1fa4:	80 81       	ld	r24, Z
    1fa6:	80 62       	ori	r24, 0x20	; 32
    1fa8:	8c 93       	st	X, r24
    1faa:	a0 e8       	ldi	r26, 0x80	; 128
    1fac:	b0 e0       	ldi	r27, 0x00	; 0
    1fae:	e0 e8       	ldi	r30, 0x80	; 128
    1fb0:	f0 e0       	ldi	r31, 0x00	; 0
    1fb2:	80 81       	ld	r24, Z
    1fb4:	8f 7e       	andi	r24, 0xEF	; 239
    1fb6:	8c 93       	st	X, r24
    1fb8:	df 91       	pop	r29
    1fba:	cf 91       	pop	r28
    1fbc:	08 95       	ret

00001fbe <timer1PWMAOff>:
    1fbe:	cf 93       	push	r28
    1fc0:	df 93       	push	r29
    1fc2:	cd b7       	in	r28, 0x3d	; 61
    1fc4:	de b7       	in	r29, 0x3e	; 62
    1fc6:	a0 e8       	ldi	r26, 0x80	; 128
    1fc8:	b0 e0       	ldi	r27, 0x00	; 0
    1fca:	e0 e8       	ldi	r30, 0x80	; 128
    1fcc:	f0 e0       	ldi	r31, 0x00	; 0
    1fce:	90 81       	ld	r25, Z
    1fd0:	8f e7       	ldi	r24, 0x7F	; 127
    1fd2:	89 23       	and	r24, r25
    1fd4:	8c 93       	st	X, r24
    1fd6:	a0 e8       	ldi	r26, 0x80	; 128
    1fd8:	b0 e0       	ldi	r27, 0x00	; 0
    1fda:	e0 e8       	ldi	r30, 0x80	; 128
    1fdc:	f0 e0       	ldi	r31, 0x00	; 0
    1fde:	80 81       	ld	r24, Z
    1fe0:	8f 7b       	andi	r24, 0xBF	; 191
    1fe2:	8c 93       	st	X, r24
    1fe4:	df 91       	pop	r29
    1fe6:	cf 91       	pop	r28
    1fe8:	08 95       	ret

00001fea <timer1PWMBOff>:
    1fea:	cf 93       	push	r28
    1fec:	df 93       	push	r29
    1fee:	cd b7       	in	r28, 0x3d	; 61
    1ff0:	de b7       	in	r29, 0x3e	; 62
    1ff2:	a0 e8       	ldi	r26, 0x80	; 128
    1ff4:	b0 e0       	ldi	r27, 0x00	; 0
    1ff6:	e0 e8       	ldi	r30, 0x80	; 128
    1ff8:	f0 e0       	ldi	r31, 0x00	; 0
    1ffa:	80 81       	ld	r24, Z
    1ffc:	8f 7d       	andi	r24, 0xDF	; 223
    1ffe:	8c 93       	st	X, r24
    2000:	a0 e8       	ldi	r26, 0x80	; 128
    2002:	b0 e0       	ldi	r27, 0x00	; 0
    2004:	e0 e8       	ldi	r30, 0x80	; 128
    2006:	f0 e0       	ldi	r31, 0x00	; 0
    2008:	80 81       	ld	r24, Z
    200a:	8f 7e       	andi	r24, 0xEF	; 239
    200c:	8c 93       	st	X, r24
    200e:	df 91       	pop	r29
    2010:	cf 91       	pop	r28
    2012:	08 95       	ret

00002014 <timer1PWMASet>:
    2014:	cf 93       	push	r28
    2016:	df 93       	push	r29
    2018:	cd b7       	in	r28, 0x3d	; 61
    201a:	de b7       	in	r29, 0x3e	; 62
    201c:	22 97       	sbiw	r28, 0x02	; 2
    201e:	0f b6       	in	r0, 0x3f	; 63
    2020:	f8 94       	cli
    2022:	de bf       	out	0x3e, r29	; 62
    2024:	0f be       	out	0x3f, r0	; 63
    2026:	cd bf       	out	0x3d, r28	; 61
    2028:	9a 83       	std	Y+2, r25	; 0x02
    202a:	89 83       	std	Y+1, r24	; 0x01
    202c:	e8 e8       	ldi	r30, 0x88	; 136
    202e:	f0 e0       	ldi	r31, 0x00	; 0
    2030:	89 81       	ldd	r24, Y+1	; 0x01
    2032:	9a 81       	ldd	r25, Y+2	; 0x02
    2034:	91 83       	std	Z+1, r25	; 0x01
    2036:	80 83       	st	Z, r24
    2038:	22 96       	adiw	r28, 0x02	; 2
    203a:	0f b6       	in	r0, 0x3f	; 63
    203c:	f8 94       	cli
    203e:	de bf       	out	0x3e, r29	; 62
    2040:	0f be       	out	0x3f, r0	; 63
    2042:	cd bf       	out	0x3d, r28	; 61
    2044:	df 91       	pop	r29
    2046:	cf 91       	pop	r28
    2048:	08 95       	ret

0000204a <timer1PWMBSet>:
    204a:	cf 93       	push	r28
    204c:	df 93       	push	r29
    204e:	cd b7       	in	r28, 0x3d	; 61
    2050:	de b7       	in	r29, 0x3e	; 62
    2052:	22 97       	sbiw	r28, 0x02	; 2
    2054:	0f b6       	in	r0, 0x3f	; 63
    2056:	f8 94       	cli
    2058:	de bf       	out	0x3e, r29	; 62
    205a:	0f be       	out	0x3f, r0	; 63
    205c:	cd bf       	out	0x3d, r28	; 61
    205e:	9a 83       	std	Y+2, r25	; 0x02
    2060:	89 83       	std	Y+1, r24	; 0x01
    2062:	ea e8       	ldi	r30, 0x8A	; 138
    2064:	f0 e0       	ldi	r31, 0x00	; 0
    2066:	89 81       	ldd	r24, Y+1	; 0x01
    2068:	9a 81       	ldd	r25, Y+2	; 0x02
    206a:	91 83       	std	Z+1, r25	; 0x01
    206c:	80 83       	st	Z, r24
    206e:	22 96       	adiw	r28, 0x02	; 2
    2070:	0f b6       	in	r0, 0x3f	; 63
    2072:	f8 94       	cli
    2074:	de bf       	out	0x3e, r29	; 62
    2076:	0f be       	out	0x3f, r0	; 63
    2078:	cd bf       	out	0x3d, r28	; 61
    207a:	df 91       	pop	r29
    207c:	cf 91       	pop	r28
    207e:	08 95       	ret

00002080 <__vector_16>:
    2080:	1f 92       	push	r1
    2082:	0f 92       	push	r0
    2084:	0f b6       	in	r0, 0x3f	; 63
    2086:	0f 92       	push	r0
    2088:	11 24       	eor	r1, r1
    208a:	2f 93       	push	r18
    208c:	3f 93       	push	r19
    208e:	4f 93       	push	r20
    2090:	5f 93       	push	r21
    2092:	6f 93       	push	r22
    2094:	7f 93       	push	r23
    2096:	8f 93       	push	r24
    2098:	9f 93       	push	r25
    209a:	af 93       	push	r26
    209c:	bf 93       	push	r27
    209e:	ef 93       	push	r30
    20a0:	ff 93       	push	r31
    20a2:	cf 93       	push	r28
    20a4:	df 93       	push	r29
    20a6:	cd b7       	in	r28, 0x3d	; 61
    20a8:	de b7       	in	r29, 0x3e	; 62
    20aa:	80 91 8d 02 	lds	r24, 0x028D
    20ae:	90 91 8e 02 	lds	r25, 0x028E
    20b2:	a0 91 8f 02 	lds	r26, 0x028F
    20b6:	b0 91 90 02 	lds	r27, 0x0290
    20ba:	01 96       	adiw	r24, 0x01	; 1
    20bc:	a1 1d       	adc	r26, r1
    20be:	b1 1d       	adc	r27, r1
    20c0:	80 93 8d 02 	sts	0x028D, r24
    20c4:	90 93 8e 02 	sts	0x028E, r25
    20c8:	a0 93 8f 02 	sts	0x028F, r26
    20cc:	b0 93 90 02 	sts	0x0290, r27
    20d0:	80 91 91 02 	lds	r24, 0x0291
    20d4:	90 91 92 02 	lds	r25, 0x0292
    20d8:	a0 91 93 02 	lds	r26, 0x0293
    20dc:	b0 91 94 02 	lds	r27, 0x0294
    20e0:	01 96       	adiw	r24, 0x01	; 1
    20e2:	a1 1d       	adc	r26, r1
    20e4:	b1 1d       	adc	r27, r1
    20e6:	80 93 91 02 	sts	0x0291, r24
    20ea:	90 93 92 02 	sts	0x0292, r25
    20ee:	a0 93 93 02 	sts	0x0293, r26
    20f2:	b0 93 94 02 	sts	0x0294, r27
    20f6:	80 91 18 01 	lds	r24, 0x0118
    20fa:	90 91 19 01 	lds	r25, 0x0119
    20fe:	00 97       	sbiw	r24, 0x00	; 0
    2100:	29 f0       	breq	.+10     	; 0x210c <__vector_16+0x8c>
    2102:	e0 91 18 01 	lds	r30, 0x0118
    2106:	f0 91 19 01 	lds	r31, 0x0119
    210a:	09 95       	icall
    210c:	df 91       	pop	r29
    210e:	cf 91       	pop	r28
    2110:	ff 91       	pop	r31
    2112:	ef 91       	pop	r30
    2114:	bf 91       	pop	r27
    2116:	af 91       	pop	r26
    2118:	9f 91       	pop	r25
    211a:	8f 91       	pop	r24
    211c:	7f 91       	pop	r23
    211e:	6f 91       	pop	r22
    2120:	5f 91       	pop	r21
    2122:	4f 91       	pop	r20
    2124:	3f 91       	pop	r19
    2126:	2f 91       	pop	r18
    2128:	0f 90       	pop	r0
    212a:	0f be       	out	0x3f, r0	; 63
    212c:	0f 90       	pop	r0
    212e:	1f 90       	pop	r1
    2130:	18 95       	reti

00002132 <__vector_13>:
    2132:	1f 92       	push	r1
    2134:	0f 92       	push	r0
    2136:	0f b6       	in	r0, 0x3f	; 63
    2138:	0f 92       	push	r0
    213a:	11 24       	eor	r1, r1
    213c:	2f 93       	push	r18
    213e:	3f 93       	push	r19
    2140:	4f 93       	push	r20
    2142:	5f 93       	push	r21
    2144:	6f 93       	push	r22
    2146:	7f 93       	push	r23
    2148:	8f 93       	push	r24
    214a:	9f 93       	push	r25
    214c:	af 93       	push	r26
    214e:	bf 93       	push	r27
    2150:	ef 93       	push	r30
    2152:	ff 93       	push	r31
    2154:	cf 93       	push	r28
    2156:	df 93       	push	r29
    2158:	cd b7       	in	r28, 0x3d	; 61
    215a:	de b7       	in	r29, 0x3e	; 62
    215c:	80 91 1a 01 	lds	r24, 0x011A
    2160:	90 91 1b 01 	lds	r25, 0x011B
    2164:	00 97       	sbiw	r24, 0x00	; 0
    2166:	29 f0       	breq	.+10     	; 0x2172 <__vector_13+0x40>
    2168:	e0 91 1a 01 	lds	r30, 0x011A
    216c:	f0 91 1b 01 	lds	r31, 0x011B
    2170:	09 95       	icall
    2172:	df 91       	pop	r29
    2174:	cf 91       	pop	r28
    2176:	ff 91       	pop	r31
    2178:	ef 91       	pop	r30
    217a:	bf 91       	pop	r27
    217c:	af 91       	pop	r26
    217e:	9f 91       	pop	r25
    2180:	8f 91       	pop	r24
    2182:	7f 91       	pop	r23
    2184:	6f 91       	pop	r22
    2186:	5f 91       	pop	r21
    2188:	4f 91       	pop	r20
    218a:	3f 91       	pop	r19
    218c:	2f 91       	pop	r18
    218e:	0f 90       	pop	r0
    2190:	0f be       	out	0x3f, r0	; 63
    2192:	0f 90       	pop	r0
    2194:	1f 90       	pop	r1
    2196:	18 95       	reti

00002198 <__vector_9>:
    2198:	1f 92       	push	r1
    219a:	0f 92       	push	r0
    219c:	0f b6       	in	r0, 0x3f	; 63
    219e:	0f 92       	push	r0
    21a0:	11 24       	eor	r1, r1
    21a2:	2f 93       	push	r18
    21a4:	3f 93       	push	r19
    21a6:	4f 93       	push	r20
    21a8:	5f 93       	push	r21
    21aa:	6f 93       	push	r22
    21ac:	7f 93       	push	r23
    21ae:	8f 93       	push	r24
    21b0:	9f 93       	push	r25
    21b2:	af 93       	push	r26
    21b4:	bf 93       	push	r27
    21b6:	ef 93       	push	r30
    21b8:	ff 93       	push	r31
    21ba:	cf 93       	push	r28
    21bc:	df 93       	push	r29
    21be:	cd b7       	in	r28, 0x3d	; 61
    21c0:	de b7       	in	r29, 0x3e	; 62
    21c2:	80 91 95 02 	lds	r24, 0x0295
    21c6:	90 91 96 02 	lds	r25, 0x0296
    21ca:	a0 91 97 02 	lds	r26, 0x0297
    21ce:	b0 91 98 02 	lds	r27, 0x0298
    21d2:	01 96       	adiw	r24, 0x01	; 1
    21d4:	a1 1d       	adc	r26, r1
    21d6:	b1 1d       	adc	r27, r1
    21d8:	80 93 95 02 	sts	0x0295, r24
    21dc:	90 93 96 02 	sts	0x0296, r25
    21e0:	a0 93 97 02 	sts	0x0297, r26
    21e4:	b0 93 98 02 	sts	0x0298, r27
    21e8:	80 91 22 01 	lds	r24, 0x0122
    21ec:	90 91 23 01 	lds	r25, 0x0123
    21f0:	00 97       	sbiw	r24, 0x00	; 0
    21f2:	29 f0       	breq	.+10     	; 0x21fe <__vector_9+0x66>
    21f4:	e0 91 22 01 	lds	r30, 0x0122
    21f8:	f0 91 23 01 	lds	r31, 0x0123
    21fc:	09 95       	icall
    21fe:	df 91       	pop	r29
    2200:	cf 91       	pop	r28
    2202:	ff 91       	pop	r31
    2204:	ef 91       	pop	r30
    2206:	bf 91       	pop	r27
    2208:	af 91       	pop	r26
    220a:	9f 91       	pop	r25
    220c:	8f 91       	pop	r24
    220e:	7f 91       	pop	r23
    2210:	6f 91       	pop	r22
    2212:	5f 91       	pop	r21
    2214:	4f 91       	pop	r20
    2216:	3f 91       	pop	r19
    2218:	2f 91       	pop	r18
    221a:	0f 90       	pop	r0
    221c:	0f be       	out	0x3f, r0	; 63
    221e:	0f 90       	pop	r0
    2220:	1f 90       	pop	r1
    2222:	18 95       	reti

00002224 <__vector_11>:
    2224:	1f 92       	push	r1
    2226:	0f 92       	push	r0
    2228:	0f b6       	in	r0, 0x3f	; 63
    222a:	0f 92       	push	r0
    222c:	11 24       	eor	r1, r1
    222e:	2f 93       	push	r18
    2230:	3f 93       	push	r19
    2232:	4f 93       	push	r20
    2234:	5f 93       	push	r21
    2236:	6f 93       	push	r22
    2238:	7f 93       	push	r23
    223a:	8f 93       	push	r24
    223c:	9f 93       	push	r25
    223e:	af 93       	push	r26
    2240:	bf 93       	push	r27
    2242:	ef 93       	push	r30
    2244:	ff 93       	push	r31
    2246:	cf 93       	push	r28
    2248:	df 93       	push	r29
    224a:	cd b7       	in	r28, 0x3d	; 61
    224c:	de b7       	in	r29, 0x3e	; 62
    224e:	80 91 1c 01 	lds	r24, 0x011C
    2252:	90 91 1d 01 	lds	r25, 0x011D
    2256:	00 97       	sbiw	r24, 0x00	; 0
    2258:	29 f0       	breq	.+10     	; 0x2264 <__vector_11+0x40>
    225a:	e0 91 1c 01 	lds	r30, 0x011C
    225e:	f0 91 1d 01 	lds	r31, 0x011D
    2262:	09 95       	icall
    2264:	df 91       	pop	r29
    2266:	cf 91       	pop	r28
    2268:	ff 91       	pop	r31
    226a:	ef 91       	pop	r30
    226c:	bf 91       	pop	r27
    226e:	af 91       	pop	r26
    2270:	9f 91       	pop	r25
    2272:	8f 91       	pop	r24
    2274:	7f 91       	pop	r23
    2276:	6f 91       	pop	r22
    2278:	5f 91       	pop	r21
    227a:	4f 91       	pop	r20
    227c:	3f 91       	pop	r19
    227e:	2f 91       	pop	r18
    2280:	0f 90       	pop	r0
    2282:	0f be       	out	0x3f, r0	; 63
    2284:	0f 90       	pop	r0
    2286:	1f 90       	pop	r1
    2288:	18 95       	reti

0000228a <__vector_12>:
    228a:	1f 92       	push	r1
    228c:	0f 92       	push	r0
    228e:	0f b6       	in	r0, 0x3f	; 63
    2290:	0f 92       	push	r0
    2292:	11 24       	eor	r1, r1
    2294:	2f 93       	push	r18
    2296:	3f 93       	push	r19
    2298:	4f 93       	push	r20
    229a:	5f 93       	push	r21
    229c:	6f 93       	push	r22
    229e:	7f 93       	push	r23
    22a0:	8f 93       	push	r24
    22a2:	9f 93       	push	r25
    22a4:	af 93       	push	r26
    22a6:	bf 93       	push	r27
    22a8:	ef 93       	push	r30
    22aa:	ff 93       	push	r31
    22ac:	cf 93       	push	r28
    22ae:	df 93       	push	r29
    22b0:	cd b7       	in	r28, 0x3d	; 61
    22b2:	de b7       	in	r29, 0x3e	; 62
    22b4:	80 91 1e 01 	lds	r24, 0x011E
    22b8:	90 91 1f 01 	lds	r25, 0x011F
    22bc:	00 97       	sbiw	r24, 0x00	; 0
    22be:	29 f0       	breq	.+10     	; 0x22ca <__vector_12+0x40>
    22c0:	e0 91 1e 01 	lds	r30, 0x011E
    22c4:	f0 91 1f 01 	lds	r31, 0x011F
    22c8:	09 95       	icall
    22ca:	df 91       	pop	r29
    22cc:	cf 91       	pop	r28
    22ce:	ff 91       	pop	r31
    22d0:	ef 91       	pop	r30
    22d2:	bf 91       	pop	r27
    22d4:	af 91       	pop	r26
    22d6:	9f 91       	pop	r25
    22d8:	8f 91       	pop	r24
    22da:	7f 91       	pop	r23
    22dc:	6f 91       	pop	r22
    22de:	5f 91       	pop	r21
    22e0:	4f 91       	pop	r20
    22e2:	3f 91       	pop	r19
    22e4:	2f 91       	pop	r18
    22e6:	0f 90       	pop	r0
    22e8:	0f be       	out	0x3f, r0	; 63
    22ea:	0f 90       	pop	r0
    22ec:	1f 90       	pop	r1
    22ee:	18 95       	reti

000022f0 <__vector_10>:
    22f0:	1f 92       	push	r1
    22f2:	0f 92       	push	r0
    22f4:	0f b6       	in	r0, 0x3f	; 63
    22f6:	0f 92       	push	r0
    22f8:	11 24       	eor	r1, r1
    22fa:	2f 93       	push	r18
    22fc:	3f 93       	push	r19
    22fe:	4f 93       	push	r20
    2300:	5f 93       	push	r21
    2302:	6f 93       	push	r22
    2304:	7f 93       	push	r23
    2306:	8f 93       	push	r24
    2308:	9f 93       	push	r25
    230a:	af 93       	push	r26
    230c:	bf 93       	push	r27
    230e:	ef 93       	push	r30
    2310:	ff 93       	push	r31
    2312:	cf 93       	push	r28
    2314:	df 93       	push	r29
    2316:	cd b7       	in	r28, 0x3d	; 61
    2318:	de b7       	in	r29, 0x3e	; 62
    231a:	80 91 20 01 	lds	r24, 0x0120
    231e:	90 91 21 01 	lds	r25, 0x0121
    2322:	00 97       	sbiw	r24, 0x00	; 0
    2324:	29 f0       	breq	.+10     	; 0x2330 <__vector_10+0x40>
    2326:	e0 91 20 01 	lds	r30, 0x0120
    232a:	f0 91 21 01 	lds	r31, 0x0121
    232e:	09 95       	icall
    2330:	df 91       	pop	r29
    2332:	cf 91       	pop	r28
    2334:	ff 91       	pop	r31
    2336:	ef 91       	pop	r30
    2338:	bf 91       	pop	r27
    233a:	af 91       	pop	r26
    233c:	9f 91       	pop	r25
    233e:	8f 91       	pop	r24
    2340:	7f 91       	pop	r23
    2342:	6f 91       	pop	r22
    2344:	5f 91       	pop	r21
    2346:	4f 91       	pop	r20
    2348:	3f 91       	pop	r19
    234a:	2f 91       	pop	r18
    234c:	0f 90       	pop	r0
    234e:	0f be       	out	0x3f, r0	; 63
    2350:	0f 90       	pop	r0
    2352:	1f 90       	pop	r1
    2354:	18 95       	reti

00002356 <__vector_7>:
    2356:	1f 92       	push	r1
    2358:	0f 92       	push	r0
    235a:	0f b6       	in	r0, 0x3f	; 63
    235c:	0f 92       	push	r0
    235e:	11 24       	eor	r1, r1
    2360:	2f 93       	push	r18
    2362:	3f 93       	push	r19
    2364:	4f 93       	push	r20
    2366:	5f 93       	push	r21
    2368:	6f 93       	push	r22
    236a:	7f 93       	push	r23
    236c:	8f 93       	push	r24
    236e:	9f 93       	push	r25
    2370:	af 93       	push	r26
    2372:	bf 93       	push	r27
    2374:	ef 93       	push	r30
    2376:	ff 93       	push	r31
    2378:	cf 93       	push	r28
    237a:	df 93       	push	r29
    237c:	cd b7       	in	r28, 0x3d	; 61
    237e:	de b7       	in	r29, 0x3e	; 62
    2380:	80 91 24 01 	lds	r24, 0x0124
    2384:	90 91 25 01 	lds	r25, 0x0125
    2388:	00 97       	sbiw	r24, 0x00	; 0
    238a:	29 f0       	breq	.+10     	; 0x2396 <__vector_7+0x40>
    238c:	e0 91 24 01 	lds	r30, 0x0124
    2390:	f0 91 25 01 	lds	r31, 0x0125
    2394:	09 95       	icall
    2396:	df 91       	pop	r29
    2398:	cf 91       	pop	r28
    239a:	ff 91       	pop	r31
    239c:	ef 91       	pop	r30
    239e:	bf 91       	pop	r27
    23a0:	af 91       	pop	r26
    23a2:	9f 91       	pop	r25
    23a4:	8f 91       	pop	r24
    23a6:	7f 91       	pop	r23
    23a8:	6f 91       	pop	r22
    23aa:	5f 91       	pop	r21
    23ac:	4f 91       	pop	r20
    23ae:	3f 91       	pop	r19
    23b0:	2f 91       	pop	r18
    23b2:	0f 90       	pop	r0
    23b4:	0f be       	out	0x3f, r0	; 63
    23b6:	0f 90       	pop	r0
    23b8:	1f 90       	pop	r1
    23ba:	18 95       	reti

000023bc <__vector_8>:
    23bc:	1f 92       	push	r1
    23be:	0f 92       	push	r0
    23c0:	0f b6       	in	r0, 0x3f	; 63
    23c2:	0f 92       	push	r0
    23c4:	11 24       	eor	r1, r1
    23c6:	2f 93       	push	r18
    23c8:	3f 93       	push	r19
    23ca:	4f 93       	push	r20
    23cc:	5f 93       	push	r21
    23ce:	6f 93       	push	r22
    23d0:	7f 93       	push	r23
    23d2:	8f 93       	push	r24
    23d4:	9f 93       	push	r25
    23d6:	af 93       	push	r26
    23d8:	bf 93       	push	r27
    23da:	ef 93       	push	r30
    23dc:	ff 93       	push	r31
    23de:	cf 93       	push	r28
    23e0:	df 93       	push	r29
    23e2:	cd b7       	in	r28, 0x3d	; 61
    23e4:	de b7       	in	r29, 0x3e	; 62
    23e6:	80 91 24 01 	lds	r24, 0x0124
    23ea:	90 91 25 01 	lds	r25, 0x0125
    23ee:	00 97       	sbiw	r24, 0x00	; 0
    23f0:	29 f0       	breq	.+10     	; 0x23fc <__vector_8+0x40>
    23f2:	e0 91 24 01 	lds	r30, 0x0124
    23f6:	f0 91 25 01 	lds	r31, 0x0125
    23fa:	09 95       	icall
    23fc:	df 91       	pop	r29
    23fe:	cf 91       	pop	r28
    2400:	ff 91       	pop	r31
    2402:	ef 91       	pop	r30
    2404:	bf 91       	pop	r27
    2406:	af 91       	pop	r26
    2408:	9f 91       	pop	r25
    240a:	8f 91       	pop	r24
    240c:	7f 91       	pop	r23
    240e:	6f 91       	pop	r22
    2410:	5f 91       	pop	r21
    2412:	4f 91       	pop	r20
    2414:	3f 91       	pop	r19
    2416:	2f 91       	pop	r18
    2418:	0f 90       	pop	r0
    241a:	0f be       	out	0x3f, r0	; 63
    241c:	0f 90       	pop	r0
    241e:	1f 90       	pop	r1
    2420:	18 95       	reti

00002422 <servoInit>:
    2422:	cf 93       	push	r28
    2424:	df 93       	push	r29
    2426:	cd b7       	in	r28, 0x3d	; 61
    2428:	de b7       	in	r29, 0x3e	; 62
    242a:	23 97       	sbiw	r28, 0x03	; 3
    242c:	0f b6       	in	r0, 0x3f	; 63
    242e:	f8 94       	cli
    2430:	de bf       	out	0x3e, r29	; 62
    2432:	0f be       	out	0x3f, r0	; 63
    2434:	cd bf       	out	0x3d, r28	; 61
    2436:	af e6       	ldi	r26, 0x6F	; 111
    2438:	b0 e0       	ldi	r27, 0x00	; 0
    243a:	ef e6       	ldi	r30, 0x6F	; 111
    243c:	f0 e0       	ldi	r31, 0x00	; 0
    243e:	80 81       	ld	r24, Z
    2440:	8d 7f       	andi	r24, 0xFD	; 253
    2442:	8c 93       	st	X, r24
    2444:	84 e0       	ldi	r24, 0x04	; 4
    2446:	0e 94 f9 0c 	call	0x19f2	; 0x19f2 <timer1SetPrescaler>
    244a:	8c eb       	ldi	r24, 0xBC	; 188
    244c:	93 e1       	ldi	r25, 0x13	; 19
    244e:	bc 01       	movw	r22, r24
    2450:	82 e0       	ldi	r24, 0x02	; 2
    2452:	0e 94 b3 0d 	call	0x1b66	; 0x1b66 <timerAttach>
    2456:	1b 82       	std	Y+3, r1	; 0x03
    2458:	34 c0       	rjmp	.+104    	; 0x24c2 <servoInit+0xa0>
    245a:	8b 81       	ldd	r24, Y+3	; 0x03
    245c:	88 2f       	mov	r24, r24
    245e:	90 e0       	ldi	r25, 0x00	; 0
    2460:	88 0f       	add	r24, r24
    2462:	99 1f       	adc	r25, r25
    2464:	88 0f       	add	r24, r24
    2466:	99 1f       	adc	r25, r25
    2468:	fc 01       	movw	r30, r24
    246a:	e4 56       	subi	r30, 0x64	; 100
    246c:	fd 4f       	sbci	r31, 0xFD	; 253
    246e:	82 e2       	ldi	r24, 0x22	; 34
    2470:	90 e0       	ldi	r25, 0x00	; 0
    2472:	91 83       	std	Z+1, r25	; 0x01
    2474:	80 83       	st	Z, r24
    2476:	8b 81       	ldd	r24, Y+3	; 0x03
    2478:	88 2f       	mov	r24, r24
    247a:	90 e0       	ldi	r25, 0x00	; 0
    247c:	88 0f       	add	r24, r24
    247e:	99 1f       	adc	r25, r25
    2480:	88 0f       	add	r24, r24
    2482:	99 1f       	adc	r25, r25
    2484:	fc 01       	movw	r30, r24
    2486:	e6 56       	subi	r30, 0x66	; 102
    2488:	fd 4f       	sbci	r31, 0xFD	; 253
    248a:	85 e0       	ldi	r24, 0x05	; 5
    248c:	80 83       	st	Z, r24
    248e:	8b 81       	ldd	r24, Y+3	; 0x03
    2490:	48 2f       	mov	r20, r24
    2492:	50 e0       	ldi	r21, 0x00	; 0
    2494:	8b 81       	ldd	r24, Y+3	; 0x03
    2496:	28 2f       	mov	r18, r24
    2498:	30 e0       	ldi	r19, 0x00	; 0
    249a:	81 e0       	ldi	r24, 0x01	; 1
    249c:	90 e0       	ldi	r25, 0x00	; 0
    249e:	02 c0       	rjmp	.+4      	; 0x24a4 <servoInit+0x82>
    24a0:	88 0f       	add	r24, r24
    24a2:	99 1f       	adc	r25, r25
    24a4:	2a 95       	dec	r18
    24a6:	e2 f7       	brpl	.-8      	; 0x24a0 <servoInit+0x7e>
    24a8:	28 2f       	mov	r18, r24
    24aa:	ca 01       	movw	r24, r20
    24ac:	88 0f       	add	r24, r24
    24ae:	99 1f       	adc	r25, r25
    24b0:	88 0f       	add	r24, r24
    24b2:	99 1f       	adc	r25, r25
    24b4:	fc 01       	movw	r30, r24
    24b6:	e5 56       	subi	r30, 0x65	; 101
    24b8:	fd 4f       	sbci	r31, 0xFD	; 253
    24ba:	20 83       	st	Z, r18
    24bc:	8b 81       	ldd	r24, Y+3	; 0x03
    24be:	8f 5f       	subi	r24, 0xFF	; 255
    24c0:	8b 83       	std	Y+3, r24	; 0x03
    24c2:	8b 81       	ldd	r24, Y+3	; 0x03
    24c4:	84 30       	cpi	r24, 0x04	; 4
    24c6:	48 f2       	brcs	.-110    	; 0x245a <servoInit+0x38>
    24c8:	10 92 ab 02 	sts	0x02AB, r1
    24cc:	10 92 aa 02 	sts	0x02AA, r1
    24d0:	8a ed       	ldi	r24, 0xDA	; 218
    24d2:	94 e0       	ldi	r25, 0x04	; 4
    24d4:	90 93 ad 02 	sts	0x02AD, r25
    24d8:	80 93 ac 02 	sts	0x02AC, r24
    24dc:	e8 e8       	ldi	r30, 0x88	; 136
    24de:	f0 e0       	ldi	r31, 0x00	; 0
    24e0:	80 81       	ld	r24, Z
    24e2:	88 2f       	mov	r24, r24
    24e4:	90 e0       	ldi	r25, 0x00	; 0
    24e6:	9a 83       	std	Y+2, r25	; 0x02
    24e8:	89 83       	std	Y+1, r24	; 0x01
    24ea:	e9 e8       	ldi	r30, 0x89	; 137
    24ec:	f0 e0       	ldi	r31, 0x00	; 0
    24ee:	80 81       	ld	r24, Z
    24f0:	88 2f       	mov	r24, r24
    24f2:	90 e0       	ldi	r25, 0x00	; 0
    24f4:	98 2f       	mov	r25, r24
    24f6:	88 27       	eor	r24, r24
    24f8:	9c 01       	movw	r18, r24
    24fa:	89 81       	ldd	r24, Y+1	; 0x01
    24fc:	9a 81       	ldd	r25, Y+2	; 0x02
    24fe:	82 0f       	add	r24, r18
    2500:	93 1f       	adc	r25, r19
    2502:	9a 83       	std	Y+2, r25	; 0x02
    2504:	89 83       	std	Y+1, r24	; 0x01
    2506:	20 91 ac 02 	lds	r18, 0x02AC
    250a:	30 91 ad 02 	lds	r19, 0x02AD
    250e:	89 81       	ldd	r24, Y+1	; 0x01
    2510:	9a 81       	ldd	r25, Y+2	; 0x02
    2512:	82 0f       	add	r24, r18
    2514:	93 1f       	adc	r25, r19
    2516:	9a 83       	std	Y+2, r25	; 0x02
    2518:	89 83       	std	Y+1, r24	; 0x01
    251a:	e9 e8       	ldi	r30, 0x89	; 137
    251c:	f0 e0       	ldi	r31, 0x00	; 0
    251e:	89 81       	ldd	r24, Y+1	; 0x01
    2520:	9a 81       	ldd	r25, Y+2	; 0x02
    2522:	89 2f       	mov	r24, r25
    2524:	99 27       	eor	r25, r25
    2526:	80 83       	st	Z, r24
    2528:	e8 e8       	ldi	r30, 0x88	; 136
    252a:	f0 e0       	ldi	r31, 0x00	; 0
    252c:	89 81       	ldd	r24, Y+1	; 0x01
    252e:	80 83       	st	Z, r24
    2530:	af e6       	ldi	r26, 0x6F	; 111
    2532:	b0 e0       	ldi	r27, 0x00	; 0
    2534:	ef e6       	ldi	r30, 0x6F	; 111
    2536:	f0 e0       	ldi	r31, 0x00	; 0
    2538:	80 81       	ld	r24, Z
    253a:	82 60       	ori	r24, 0x02	; 2
    253c:	8c 93       	st	X, r24
    253e:	23 96       	adiw	r28, 0x03	; 3
    2540:	0f b6       	in	r0, 0x3f	; 63
    2542:	f8 94       	cli
    2544:	de bf       	out	0x3e, r29	; 62
    2546:	0f be       	out	0x3f, r0	; 63
    2548:	cd bf       	out	0x3d, r28	; 61
    254a:	df 91       	pop	r29
    254c:	cf 91       	pop	r28
    254e:	08 95       	ret

00002550 <servoOff>:
    2550:	cf 93       	push	r28
    2552:	df 93       	push	r29
    2554:	cd b7       	in	r28, 0x3d	; 61
    2556:	de b7       	in	r29, 0x3e	; 62
    2558:	af e6       	ldi	r26, 0x6F	; 111
    255a:	b0 e0       	ldi	r27, 0x00	; 0
    255c:	ef e6       	ldi	r30, 0x6F	; 111
    255e:	f0 e0       	ldi	r31, 0x00	; 0
    2560:	80 81       	ld	r24, Z
    2562:	8d 7f       	andi	r24, 0xFD	; 253
    2564:	8c 93       	st	X, r24
    2566:	82 e0       	ldi	r24, 0x02	; 2
    2568:	0e 94 d8 0d 	call	0x1bb0	; 0x1bb0 <timerDetach>
    256c:	df 91       	pop	r29
    256e:	cf 91       	pop	r28
    2570:	08 95       	ret

00002572 <servoSetChannelIO>:
    2572:	cf 93       	push	r28
    2574:	df 93       	push	r29
    2576:	cd b7       	in	r28, 0x3d	; 61
    2578:	de b7       	in	r29, 0x3e	; 62
    257a:	23 97       	sbiw	r28, 0x03	; 3
    257c:	0f b6       	in	r0, 0x3f	; 63
    257e:	f8 94       	cli
    2580:	de bf       	out	0x3e, r29	; 62
    2582:	0f be       	out	0x3f, r0	; 63
    2584:	cd bf       	out	0x3d, r28	; 61
    2586:	89 83       	std	Y+1, r24	; 0x01
    2588:	6a 83       	std	Y+2, r22	; 0x02
    258a:	4b 83       	std	Y+3, r20	; 0x03
    258c:	89 81       	ldd	r24, Y+1	; 0x01
    258e:	88 2f       	mov	r24, r24
    2590:	90 e0       	ldi	r25, 0x00	; 0
    2592:	88 0f       	add	r24, r24
    2594:	99 1f       	adc	r25, r25
    2596:	88 0f       	add	r24, r24
    2598:	99 1f       	adc	r25, r25
    259a:	fc 01       	movw	r30, r24
    259c:	e6 56       	subi	r30, 0x66	; 102
    259e:	fd 4f       	sbci	r31, 0xFD	; 253
    25a0:	8a 81       	ldd	r24, Y+2	; 0x02
    25a2:	80 83       	st	Z, r24
    25a4:	89 81       	ldd	r24, Y+1	; 0x01
    25a6:	48 2f       	mov	r20, r24
    25a8:	50 e0       	ldi	r21, 0x00	; 0
    25aa:	8b 81       	ldd	r24, Y+3	; 0x03
    25ac:	88 2f       	mov	r24, r24
    25ae:	90 e0       	ldi	r25, 0x00	; 0
    25b0:	9c 01       	movw	r18, r24
    25b2:	27 70       	andi	r18, 0x07	; 7
    25b4:	30 70       	andi	r19, 0x00	; 0
    25b6:	81 e0       	ldi	r24, 0x01	; 1
    25b8:	90 e0       	ldi	r25, 0x00	; 0
    25ba:	02 c0       	rjmp	.+4      	; 0x25c0 <servoSetChannelIO+0x4e>
    25bc:	88 0f       	add	r24, r24
    25be:	99 1f       	adc	r25, r25
    25c0:	2a 95       	dec	r18
    25c2:	e2 f7       	brpl	.-8      	; 0x25bc <servoSetChannelIO+0x4a>
    25c4:	28 2f       	mov	r18, r24
    25c6:	ca 01       	movw	r24, r20
    25c8:	88 0f       	add	r24, r24
    25ca:	99 1f       	adc	r25, r25
    25cc:	88 0f       	add	r24, r24
    25ce:	99 1f       	adc	r25, r25
    25d0:	fc 01       	movw	r30, r24
    25d2:	e5 56       	subi	r30, 0x65	; 101
    25d4:	fd 4f       	sbci	r31, 0xFD	; 253
    25d6:	20 83       	st	Z, r18
    25d8:	23 96       	adiw	r28, 0x03	; 3
    25da:	0f b6       	in	r0, 0x3f	; 63
    25dc:	f8 94       	cli
    25de:	de bf       	out	0x3e, r29	; 62
    25e0:	0f be       	out	0x3f, r0	; 63
    25e2:	cd bf       	out	0x3d, r28	; 61
    25e4:	df 91       	pop	r29
    25e6:	cf 91       	pop	r28
    25e8:	08 95       	ret

000025ea <servoSetPosition>:
    25ea:	cf 93       	push	r28
    25ec:	df 93       	push	r29
    25ee:	cd b7       	in	r28, 0x3d	; 61
    25f0:	de b7       	in	r29, 0x3e	; 62
    25f2:	24 97       	sbiw	r28, 0x04	; 4
    25f4:	0f b6       	in	r0, 0x3f	; 63
    25f6:	f8 94       	cli
    25f8:	de bf       	out	0x3e, r29	; 62
    25fa:	0f be       	out	0x3f, r0	; 63
    25fc:	cd bf       	out	0x3d, r28	; 61
    25fe:	8b 83       	std	Y+3, r24	; 0x03
    2600:	6c 83       	std	Y+4, r22	; 0x04
    2602:	8c 81       	ldd	r24, Y+4	; 0x04
    2604:	28 2f       	mov	r18, r24
    2606:	30 e0       	ldi	r19, 0x00	; 0
    2608:	88 e6       	ldi	r24, 0x68	; 104
    260a:	90 e0       	ldi	r25, 0x00	; 0
    260c:	ac 01       	movw	r20, r24
    260e:	24 9f       	mul	r18, r20
    2610:	c0 01       	movw	r24, r0
    2612:	25 9f       	mul	r18, r21
    2614:	90 0d       	add	r25, r0
    2616:	34 9f       	mul	r19, r20
    2618:	90 0d       	add	r25, r0
    261a:	11 24       	eor	r1, r1
    261c:	2f ef       	ldi	r18, 0xFF	; 255
    261e:	30 e0       	ldi	r19, 0x00	; 0
    2620:	b9 01       	movw	r22, r18
    2622:	0e 94 3a 1b 	call	0x3674	; 0x3674 <__udivmodhi4>
    2626:	cb 01       	movw	r24, r22
    2628:	82 96       	adiw	r24, 0x22	; 34
    262a:	9a 83       	std	Y+2, r25	; 0x02
    262c:	89 83       	std	Y+1, r24	; 0x01
    262e:	89 81       	ldd	r24, Y+1	; 0x01
    2630:	9a 81       	ldd	r25, Y+2	; 0x02
    2632:	bc 01       	movw	r22, r24
    2634:	8b 81       	ldd	r24, Y+3	; 0x03
    2636:	0e 94 56 13 	call	0x26ac	; 0x26ac <servoSetPositionRaw>
    263a:	24 96       	adiw	r28, 0x04	; 4
    263c:	0f b6       	in	r0, 0x3f	; 63
    263e:	f8 94       	cli
    2640:	de bf       	out	0x3e, r29	; 62
    2642:	0f be       	out	0x3f, r0	; 63
    2644:	cd bf       	out	0x3d, r28	; 61
    2646:	df 91       	pop	r29
    2648:	cf 91       	pop	r28
    264a:	08 95       	ret

0000264c <servoGetPosition>:
    264c:	cf 93       	push	r28
    264e:	df 93       	push	r29
    2650:	cd b7       	in	r28, 0x3d	; 61
    2652:	de b7       	in	r29, 0x3e	; 62
    2654:	21 97       	sbiw	r28, 0x01	; 1
    2656:	0f b6       	in	r0, 0x3f	; 63
    2658:	f8 94       	cli
    265a:	de bf       	out	0x3e, r29	; 62
    265c:	0f be       	out	0x3f, r0	; 63
    265e:	cd bf       	out	0x3d, r28	; 61
    2660:	89 83       	std	Y+1, r24	; 0x01
    2662:	89 81       	ldd	r24, Y+1	; 0x01
    2664:	0e 94 9c 13 	call	0x2738	; 0x2738 <servoGetPositionRaw>
    2668:	ac 01       	movw	r20, r24
    266a:	ca 01       	movw	r24, r20
    266c:	9c 01       	movw	r18, r24
    266e:	22 0f       	add	r18, r18
    2670:	33 1f       	adc	r19, r19
    2672:	c9 01       	movw	r24, r18
    2674:	96 95       	lsr	r25
    2676:	98 2f       	mov	r25, r24
    2678:	88 27       	eor	r24, r24
    267a:	97 95       	ror	r25
    267c:	87 95       	ror	r24
    267e:	82 1b       	sub	r24, r18
    2680:	93 0b       	sbc	r25, r19
    2682:	84 0f       	add	r24, r20
    2684:	95 1f       	adc	r25, r21
    2686:	8e 5d       	subi	r24, 0xDE	; 222
    2688:	91 42       	sbci	r25, 0x21	; 33
    268a:	28 e6       	ldi	r18, 0x68	; 104
    268c:	30 e0       	ldi	r19, 0x00	; 0
    268e:	b9 01       	movw	r22, r18
    2690:	0e 94 3a 1b 	call	0x3674	; 0x3674 <__udivmodhi4>
    2694:	cb 01       	movw	r24, r22
    2696:	88 2f       	mov	r24, r24
    2698:	90 e0       	ldi	r25, 0x00	; 0
    269a:	21 96       	adiw	r28, 0x01	; 1
    269c:	0f b6       	in	r0, 0x3f	; 63
    269e:	f8 94       	cli
    26a0:	de bf       	out	0x3e, r29	; 62
    26a2:	0f be       	out	0x3f, r0	; 63
    26a4:	cd bf       	out	0x3d, r28	; 61
    26a6:	df 91       	pop	r29
    26a8:	cf 91       	pop	r28
    26aa:	08 95       	ret

000026ac <servoSetPositionRaw>:
    26ac:	cf 93       	push	r28
    26ae:	df 93       	push	r29
    26b0:	cd b7       	in	r28, 0x3d	; 61
    26b2:	de b7       	in	r29, 0x3e	; 62
    26b4:	27 97       	sbiw	r28, 0x07	; 7
    26b6:	0f b6       	in	r0, 0x3f	; 63
    26b8:	f8 94       	cli
    26ba:	de bf       	out	0x3e, r29	; 62
    26bc:	0f be       	out	0x3f, r0	; 63
    26be:	cd bf       	out	0x3d, r28	; 61
    26c0:	89 83       	std	Y+1, r24	; 0x01
    26c2:	7b 83       	std	Y+3, r23	; 0x03
    26c4:	6a 83       	std	Y+2, r22	; 0x02
    26c6:	8a 81       	ldd	r24, Y+2	; 0x02
    26c8:	9b 81       	ldd	r25, Y+3	; 0x03
    26ca:	9d 83       	std	Y+5, r25	; 0x05
    26cc:	8c 83       	std	Y+4, r24	; 0x04
    26ce:	8c 81       	ldd	r24, Y+4	; 0x04
    26d0:	9d 81       	ldd	r25, Y+5	; 0x05
    26d2:	82 32       	cpi	r24, 0x22	; 34
    26d4:	91 05       	cpc	r25, r1
    26d6:	20 f4       	brcc	.+8      	; 0x26e0 <servoSetPositionRaw+0x34>
    26d8:	82 e2       	ldi	r24, 0x22	; 34
    26da:	90 e0       	ldi	r25, 0x00	; 0
    26dc:	9d 83       	std	Y+5, r25	; 0x05
    26de:	8c 83       	std	Y+4, r24	; 0x04
    26e0:	8c 81       	ldd	r24, Y+4	; 0x04
    26e2:	9d 81       	ldd	r25, Y+5	; 0x05
    26e4:	9b 83       	std	Y+3, r25	; 0x03
    26e6:	8a 83       	std	Y+2, r24	; 0x02
    26e8:	8a 81       	ldd	r24, Y+2	; 0x02
    26ea:	9b 81       	ldd	r25, Y+3	; 0x03
    26ec:	9f 83       	std	Y+7, r25	; 0x07
    26ee:	8e 83       	std	Y+6, r24	; 0x06
    26f0:	8e 81       	ldd	r24, Y+6	; 0x06
    26f2:	9f 81       	ldd	r25, Y+7	; 0x07
    26f4:	8b 38       	cpi	r24, 0x8B	; 139
    26f6:	91 05       	cpc	r25, r1
    26f8:	20 f0       	brcs	.+8      	; 0x2702 <servoSetPositionRaw+0x56>
    26fa:	8a e8       	ldi	r24, 0x8A	; 138
    26fc:	90 e0       	ldi	r25, 0x00	; 0
    26fe:	9f 83       	std	Y+7, r25	; 0x07
    2700:	8e 83       	std	Y+6, r24	; 0x06
    2702:	8e 81       	ldd	r24, Y+6	; 0x06
    2704:	9f 81       	ldd	r25, Y+7	; 0x07
    2706:	9b 83       	std	Y+3, r25	; 0x03
    2708:	8a 83       	std	Y+2, r24	; 0x02
    270a:	89 81       	ldd	r24, Y+1	; 0x01
    270c:	88 2f       	mov	r24, r24
    270e:	90 e0       	ldi	r25, 0x00	; 0
    2710:	88 0f       	add	r24, r24
    2712:	99 1f       	adc	r25, r25
    2714:	88 0f       	add	r24, r24
    2716:	99 1f       	adc	r25, r25
    2718:	fc 01       	movw	r30, r24
    271a:	e4 56       	subi	r30, 0x64	; 100
    271c:	fd 4f       	sbci	r31, 0xFD	; 253
    271e:	8a 81       	ldd	r24, Y+2	; 0x02
    2720:	9b 81       	ldd	r25, Y+3	; 0x03
    2722:	91 83       	std	Z+1, r25	; 0x01
    2724:	80 83       	st	Z, r24
    2726:	27 96       	adiw	r28, 0x07	; 7
    2728:	0f b6       	in	r0, 0x3f	; 63
    272a:	f8 94       	cli
    272c:	de bf       	out	0x3e, r29	; 62
    272e:	0f be       	out	0x3f, r0	; 63
    2730:	cd bf       	out	0x3d, r28	; 61
    2732:	df 91       	pop	r29
    2734:	cf 91       	pop	r28
    2736:	08 95       	ret

00002738 <servoGetPositionRaw>:
    2738:	cf 93       	push	r28
    273a:	df 93       	push	r29
    273c:	cd b7       	in	r28, 0x3d	; 61
    273e:	de b7       	in	r29, 0x3e	; 62
    2740:	21 97       	sbiw	r28, 0x01	; 1
    2742:	0f b6       	in	r0, 0x3f	; 63
    2744:	f8 94       	cli
    2746:	de bf       	out	0x3e, r29	; 62
    2748:	0f be       	out	0x3f, r0	; 63
    274a:	cd bf       	out	0x3d, r28	; 61
    274c:	89 83       	std	Y+1, r24	; 0x01
    274e:	89 81       	ldd	r24, Y+1	; 0x01
    2750:	88 2f       	mov	r24, r24
    2752:	90 e0       	ldi	r25, 0x00	; 0
    2754:	88 0f       	add	r24, r24
    2756:	99 1f       	adc	r25, r25
    2758:	88 0f       	add	r24, r24
    275a:	99 1f       	adc	r25, r25
    275c:	fc 01       	movw	r30, r24
    275e:	e4 56       	subi	r30, 0x64	; 100
    2760:	fd 4f       	sbci	r31, 0xFD	; 253
    2762:	80 81       	ld	r24, Z
    2764:	91 81       	ldd	r25, Z+1	; 0x01
    2766:	21 96       	adiw	r28, 0x01	; 1
    2768:	0f b6       	in	r0, 0x3f	; 63
    276a:	f8 94       	cli
    276c:	de bf       	out	0x3e, r29	; 62
    276e:	0f be       	out	0x3f, r0	; 63
    2770:	cd bf       	out	0x3d, r28	; 61
    2772:	df 91       	pop	r29
    2774:	cf 91       	pop	r28
    2776:	08 95       	ret

00002778 <servoService>:
    2778:	cf 93       	push	r28
    277a:	df 93       	push	r29
    277c:	cd b7       	in	r28, 0x3d	; 61
    277e:	de b7       	in	r29, 0x3e	; 62
    2780:	24 97       	sbiw	r28, 0x04	; 4
    2782:	0f b6       	in	r0, 0x3f	; 63
    2784:	f8 94       	cli
    2786:	de bf       	out	0x3e, r29	; 62
    2788:	0f be       	out	0x3f, r0	; 63
    278a:	cd bf       	out	0x3d, r28	; 61
    278c:	80 91 99 02 	lds	r24, 0x0299
    2790:	84 30       	cpi	r24, 0x04	; 4
    2792:	88 f5       	brcc	.+98     	; 0x27f6 <servoService+0x7e>
    2794:	80 91 99 02 	lds	r24, 0x0299
    2798:	88 2f       	mov	r24, r24
    279a:	90 e0       	ldi	r25, 0x00	; 0
    279c:	88 0f       	add	r24, r24
    279e:	99 1f       	adc	r25, r25
    27a0:	88 0f       	add	r24, r24
    27a2:	99 1f       	adc	r25, r25
    27a4:	fc 01       	movw	r30, r24
    27a6:	e6 56       	subi	r30, 0x66	; 102
    27a8:	fd 4f       	sbci	r31, 0xFD	; 253
    27aa:	80 81       	ld	r24, Z
    27ac:	88 2f       	mov	r24, r24
    27ae:	90 e0       	ldi	r25, 0x00	; 0
    27b0:	80 96       	adiw	r24, 0x20	; 32
    27b2:	dc 01       	movw	r26, r24
    27b4:	80 91 99 02 	lds	r24, 0x0299
    27b8:	88 2f       	mov	r24, r24
    27ba:	90 e0       	ldi	r25, 0x00	; 0
    27bc:	88 0f       	add	r24, r24
    27be:	99 1f       	adc	r25, r25
    27c0:	88 0f       	add	r24, r24
    27c2:	99 1f       	adc	r25, r25
    27c4:	fc 01       	movw	r30, r24
    27c6:	e6 56       	subi	r30, 0x66	; 102
    27c8:	fd 4f       	sbci	r31, 0xFD	; 253
    27ca:	80 81       	ld	r24, Z
    27cc:	88 2f       	mov	r24, r24
    27ce:	90 e0       	ldi	r25, 0x00	; 0
    27d0:	80 96       	adiw	r24, 0x20	; 32
    27d2:	fc 01       	movw	r30, r24
    27d4:	80 81       	ld	r24, Z
    27d6:	28 2f       	mov	r18, r24
    27d8:	80 91 99 02 	lds	r24, 0x0299
    27dc:	88 2f       	mov	r24, r24
    27de:	90 e0       	ldi	r25, 0x00	; 0
    27e0:	88 0f       	add	r24, r24
    27e2:	99 1f       	adc	r25, r25
    27e4:	88 0f       	add	r24, r24
    27e6:	99 1f       	adc	r25, r25
    27e8:	fc 01       	movw	r30, r24
    27ea:	e5 56       	subi	r30, 0x65	; 101
    27ec:	fd 4f       	sbci	r31, 0xFD	; 253
    27ee:	80 81       	ld	r24, Z
    27f0:	80 95       	com	r24
    27f2:	82 23       	and	r24, r18
    27f4:	8c 93       	st	X, r24
    27f6:	80 91 99 02 	lds	r24, 0x0299
    27fa:	8f 5f       	subi	r24, 0xFF	; 255
    27fc:	80 93 99 02 	sts	0x0299, r24
    2800:	80 91 99 02 	lds	r24, 0x0299
    2804:	84 30       	cpi	r24, 0x04	; 4
    2806:	09 f4       	brne	.+2      	; 0x280a <servoService+0x92>
    2808:	45 c0       	rjmp	.+138    	; 0x2894 <servoService+0x11c>
    280a:	80 91 99 02 	lds	r24, 0x0299
    280e:	85 30       	cpi	r24, 0x05	; 5
    2810:	10 f0       	brcs	.+4      	; 0x2816 <servoService+0x9e>
    2812:	10 92 99 02 	sts	0x0299, r1
    2816:	80 91 99 02 	lds	r24, 0x0299
    281a:	88 2f       	mov	r24, r24
    281c:	90 e0       	ldi	r25, 0x00	; 0
    281e:	88 0f       	add	r24, r24
    2820:	99 1f       	adc	r25, r25
    2822:	88 0f       	add	r24, r24
    2824:	99 1f       	adc	r25, r25
    2826:	fc 01       	movw	r30, r24
    2828:	e6 56       	subi	r30, 0x66	; 102
    282a:	fd 4f       	sbci	r31, 0xFD	; 253
    282c:	80 81       	ld	r24, Z
    282e:	88 2f       	mov	r24, r24
    2830:	90 e0       	ldi	r25, 0x00	; 0
    2832:	80 96       	adiw	r24, 0x20	; 32
    2834:	dc 01       	movw	r26, r24
    2836:	80 91 99 02 	lds	r24, 0x0299
    283a:	88 2f       	mov	r24, r24
    283c:	90 e0       	ldi	r25, 0x00	; 0
    283e:	88 0f       	add	r24, r24
    2840:	99 1f       	adc	r25, r25
    2842:	88 0f       	add	r24, r24
    2844:	99 1f       	adc	r25, r25
    2846:	fc 01       	movw	r30, r24
    2848:	e6 56       	subi	r30, 0x66	; 102
    284a:	fd 4f       	sbci	r31, 0xFD	; 253
    284c:	80 81       	ld	r24, Z
    284e:	88 2f       	mov	r24, r24
    2850:	90 e0       	ldi	r25, 0x00	; 0
    2852:	80 96       	adiw	r24, 0x20	; 32
    2854:	fc 01       	movw	r30, r24
    2856:	20 81       	ld	r18, Z
    2858:	80 91 99 02 	lds	r24, 0x0299
    285c:	88 2f       	mov	r24, r24
    285e:	90 e0       	ldi	r25, 0x00	; 0
    2860:	88 0f       	add	r24, r24
    2862:	99 1f       	adc	r25, r25
    2864:	88 0f       	add	r24, r24
    2866:	99 1f       	adc	r25, r25
    2868:	fc 01       	movw	r30, r24
    286a:	e5 56       	subi	r30, 0x65	; 101
    286c:	fd 4f       	sbci	r31, 0xFD	; 253
    286e:	80 81       	ld	r24, Z
    2870:	82 2b       	or	r24, r18
    2872:	8c 93       	st	X, r24
    2874:	80 91 99 02 	lds	r24, 0x0299
    2878:	88 2f       	mov	r24, r24
    287a:	90 e0       	ldi	r25, 0x00	; 0
    287c:	88 0f       	add	r24, r24
    287e:	99 1f       	adc	r25, r25
    2880:	88 0f       	add	r24, r24
    2882:	99 1f       	adc	r25, r25
    2884:	fc 01       	movw	r30, r24
    2886:	e4 56       	subi	r30, 0x64	; 100
    2888:	fd 4f       	sbci	r31, 0xFD	; 253
    288a:	80 81       	ld	r24, Z
    288c:	91 81       	ldd	r25, Z+1	; 0x01
    288e:	9c 83       	std	Y+4, r25	; 0x04
    2890:	8b 83       	std	Y+3, r24	; 0x03
    2892:	0c c0       	rjmp	.+24     	; 0x28ac <servoService+0x134>
    2894:	80 91 ac 02 	lds	r24, 0x02AC
    2898:	90 91 ad 02 	lds	r25, 0x02AD
    289c:	20 91 aa 02 	lds	r18, 0x02AA
    28a0:	30 91 ab 02 	lds	r19, 0x02AB
    28a4:	82 1b       	sub	r24, r18
    28a6:	93 0b       	sbc	r25, r19
    28a8:	9c 83       	std	Y+4, r25	; 0x04
    28aa:	8b 83       	std	Y+3, r24	; 0x03
    28ac:	e8 e8       	ldi	r30, 0x88	; 136
    28ae:	f0 e0       	ldi	r31, 0x00	; 0
    28b0:	80 81       	ld	r24, Z
    28b2:	88 2f       	mov	r24, r24
    28b4:	90 e0       	ldi	r25, 0x00	; 0
    28b6:	9a 83       	std	Y+2, r25	; 0x02
    28b8:	89 83       	std	Y+1, r24	; 0x01
    28ba:	e9 e8       	ldi	r30, 0x89	; 137
    28bc:	f0 e0       	ldi	r31, 0x00	; 0
    28be:	80 81       	ld	r24, Z
    28c0:	88 2f       	mov	r24, r24
    28c2:	90 e0       	ldi	r25, 0x00	; 0
    28c4:	98 2f       	mov	r25, r24
    28c6:	88 27       	eor	r24, r24
    28c8:	9c 01       	movw	r18, r24
    28ca:	89 81       	ldd	r24, Y+1	; 0x01
    28cc:	9a 81       	ldd	r25, Y+2	; 0x02
    28ce:	82 0f       	add	r24, r18
    28d0:	93 1f       	adc	r25, r19
    28d2:	9a 83       	std	Y+2, r25	; 0x02
    28d4:	89 83       	std	Y+1, r24	; 0x01
    28d6:	29 81       	ldd	r18, Y+1	; 0x01
    28d8:	3a 81       	ldd	r19, Y+2	; 0x02
    28da:	8b 81       	ldd	r24, Y+3	; 0x03
    28dc:	9c 81       	ldd	r25, Y+4	; 0x04
    28de:	82 0f       	add	r24, r18
    28e0:	93 1f       	adc	r25, r19
    28e2:	9a 83       	std	Y+2, r25	; 0x02
    28e4:	89 83       	std	Y+1, r24	; 0x01
    28e6:	e9 e8       	ldi	r30, 0x89	; 137
    28e8:	f0 e0       	ldi	r31, 0x00	; 0
    28ea:	89 81       	ldd	r24, Y+1	; 0x01
    28ec:	9a 81       	ldd	r25, Y+2	; 0x02
    28ee:	89 2f       	mov	r24, r25
    28f0:	99 27       	eor	r25, r25
    28f2:	80 83       	st	Z, r24
    28f4:	e8 e8       	ldi	r30, 0x88	; 136
    28f6:	f0 e0       	ldi	r31, 0x00	; 0
    28f8:	89 81       	ldd	r24, Y+1	; 0x01
    28fa:	80 83       	st	Z, r24
    28fc:	20 91 aa 02 	lds	r18, 0x02AA
    2900:	30 91 ab 02 	lds	r19, 0x02AB
    2904:	8b 81       	ldd	r24, Y+3	; 0x03
    2906:	9c 81       	ldd	r25, Y+4	; 0x04
    2908:	82 0f       	add	r24, r18
    290a:	93 1f       	adc	r25, r19
    290c:	90 93 ab 02 	sts	0x02AB, r25
    2910:	80 93 aa 02 	sts	0x02AA, r24
    2914:	20 91 aa 02 	lds	r18, 0x02AA
    2918:	30 91 ab 02 	lds	r19, 0x02AB
    291c:	80 91 ac 02 	lds	r24, 0x02AC
    2920:	90 91 ad 02 	lds	r25, 0x02AD
    2924:	28 17       	cp	r18, r24
    2926:	39 07       	cpc	r19, r25
    2928:	20 f0       	brcs	.+8      	; 0x2932 <servoService+0x1ba>
    292a:	10 92 ab 02 	sts	0x02AB, r1
    292e:	10 92 aa 02 	sts	0x02AA, r1
    2932:	24 96       	adiw	r28, 0x04	; 4
    2934:	0f b6       	in	r0, 0x3f	; 63
    2936:	f8 94       	cli
    2938:	de bf       	out	0x3e, r29	; 62
    293a:	0f be       	out	0x3f, r0	; 63
    293c:	cd bf       	out	0x3d, r28	; 61
    293e:	df 91       	pop	r29
    2940:	cf 91       	pop	r28
    2942:	08 95       	ret

00002944 <pulseInit>:
    2944:	cf 93       	push	r28
    2946:	df 93       	push	r29
    2948:	cd b7       	in	r28, 0x3d	; 61
    294a:	de b7       	in	r29, 0x3e	; 62
    294c:	0e 94 ab 14 	call	0x2956	; 0x2956 <pulseT1Init>
    2950:	df 91       	pop	r29
    2952:	cf 91       	pop	r28
    2954:	08 95       	ret

00002956 <pulseT1Init>:
    2956:	cf 93       	push	r28
    2958:	df 93       	push	r29
    295a:	cd b7       	in	r28, 0x3d	; 61
    295c:	de b7       	in	r29, 0x3e	; 62
    295e:	0e 94 9c 0f 	call	0x1f38	; 0x1f38 <timer1PWMOff>
    2962:	10 92 26 01 	sts	0x0126, r1
    2966:	10 92 2b 01 	sts	0x012B, r1
    296a:	10 92 28 01 	sts	0x0128, r1
    296e:	10 92 27 01 	sts	0x0127, r1
    2972:	10 92 2d 01 	sts	0x012D, r1
    2976:	10 92 2c 01 	sts	0x012C, r1
    297a:	80 e0       	ldi	r24, 0x00	; 0
    297c:	90 e8       	ldi	r25, 0x80	; 128
    297e:	90 93 2a 01 	sts	0x012A, r25
    2982:	80 93 29 01 	sts	0x0129, r24
    2986:	80 e0       	ldi	r24, 0x00	; 0
    2988:	90 e8       	ldi	r25, 0x80	; 128
    298a:	90 93 2f 01 	sts	0x012F, r25
    298e:	80 93 2e 01 	sts	0x012E, r24
    2992:	85 e7       	ldi	r24, 0x75	; 117
    2994:	96 e1       	ldi	r25, 0x16	; 22
    2996:	bc 01       	movw	r22, r24
    2998:	82 e0       	ldi	r24, 0x02	; 2
    299a:	0e 94 b3 0d 	call	0x1b66	; 0x1b66 <timerAttach>
    299e:	89 eb       	ldi	r24, 0xB9	; 185
    29a0:	96 e1       	ldi	r25, 0x16	; 22
    29a2:	bc 01       	movw	r22, r24
    29a4:	83 e0       	ldi	r24, 0x03	; 3
    29a6:	0e 94 b3 0d 	call	0x1b66	; 0x1b66 <timerAttach>
    29aa:	df 91       	pop	r29
    29ac:	cf 91       	pop	r28
    29ae:	08 95       	ret

000029b0 <pulseT1Off>:
    29b0:	cf 93       	push	r28
    29b2:	df 93       	push	r29
    29b4:	cd b7       	in	r28, 0x3d	; 61
    29b6:	de b7       	in	r29, 0x3e	; 62
    29b8:	10 92 28 01 	sts	0x0128, r1
    29bc:	10 92 27 01 	sts	0x0127, r1
    29c0:	10 92 2d 01 	sts	0x012D, r1
    29c4:	10 92 2c 01 	sts	0x012C, r1
    29c8:	a0 e8       	ldi	r26, 0x80	; 128
    29ca:	b0 e0       	ldi	r27, 0x00	; 0
    29cc:	e0 e8       	ldi	r30, 0x80	; 128
    29ce:	f0 e0       	ldi	r31, 0x00	; 0
    29d0:	90 81       	ld	r25, Z
    29d2:	8f e7       	ldi	r24, 0x7F	; 127
    29d4:	89 23       	and	r24, r25
    29d6:	8c 93       	st	X, r24
    29d8:	a0 e8       	ldi	r26, 0x80	; 128
    29da:	b0 e0       	ldi	r27, 0x00	; 0
    29dc:	e0 e8       	ldi	r30, 0x80	; 128
    29de:	f0 e0       	ldi	r31, 0x00	; 0
    29e0:	80 81       	ld	r24, Z
    29e2:	8f 7b       	andi	r24, 0xBF	; 191
    29e4:	8c 93       	st	X, r24
    29e6:	a0 e8       	ldi	r26, 0x80	; 128
    29e8:	b0 e0       	ldi	r27, 0x00	; 0
    29ea:	e0 e8       	ldi	r30, 0x80	; 128
    29ec:	f0 e0       	ldi	r31, 0x00	; 0
    29ee:	80 81       	ld	r24, Z
    29f0:	8f 7d       	andi	r24, 0xDF	; 223
    29f2:	8c 93       	st	X, r24
    29f4:	a0 e8       	ldi	r26, 0x80	; 128
    29f6:	b0 e0       	ldi	r27, 0x00	; 0
    29f8:	e0 e8       	ldi	r30, 0x80	; 128
    29fa:	f0 e0       	ldi	r31, 0x00	; 0
    29fc:	80 81       	ld	r24, Z
    29fe:	8f 7e       	andi	r24, 0xEF	; 239
    2a00:	8c 93       	st	X, r24
    2a02:	82 e0       	ldi	r24, 0x02	; 2
    2a04:	0e 94 d8 0d 	call	0x1bb0	; 0x1bb0 <timerDetach>
    2a08:	83 e0       	ldi	r24, 0x03	; 3
    2a0a:	0e 94 d8 0d 	call	0x1bb0	; 0x1bb0 <timerDetach>
    2a0e:	df 91       	pop	r29
    2a10:	cf 91       	pop	r28
    2a12:	08 95       	ret

00002a14 <pulseT1ASetFreq>:
    2a14:	ef 92       	push	r14
    2a16:	ff 92       	push	r15
    2a18:	0f 93       	push	r16
    2a1a:	1f 93       	push	r17
    2a1c:	cf 93       	push	r28
    2a1e:	df 93       	push	r29
    2a20:	cd b7       	in	r28, 0x3d	; 61
    2a22:	de b7       	in	r29, 0x3e	; 62
    2a24:	22 97       	sbiw	r28, 0x02	; 2
    2a26:	0f b6       	in	r0, 0x3f	; 63
    2a28:	f8 94       	cli
    2a2a:	de bf       	out	0x3e, r29	; 62
    2a2c:	0f be       	out	0x3f, r0	; 63
    2a2e:	cd bf       	out	0x3d, r28	; 61
    2a30:	9a 83       	std	Y+2, r25	; 0x02
    2a32:	89 83       	std	Y+1, r24	; 0x01
    2a34:	0e 94 5f 0d 	call	0x1abe	; 0x1abe <timer1GetPrescaler>
    2a38:	7c 01       	movw	r14, r24
    2a3a:	00 e0       	ldi	r16, 0x00	; 0
    2a3c:	10 e0       	ldi	r17, 0x00	; 0
    2a3e:	89 81       	ldd	r24, Y+1	; 0x01
    2a40:	9a 81       	ldd	r25, Y+2	; 0x02
    2a42:	9c 01       	movw	r18, r24
    2a44:	40 e0       	ldi	r20, 0x00	; 0
    2a46:	50 e0       	ldi	r21, 0x00	; 0
    2a48:	c8 01       	movw	r24, r16
    2a4a:	b7 01       	movw	r22, r14
    2a4c:	0e 94 1b 1b 	call	0x3636	; 0x3636 <__mulsi3>
    2a50:	dc 01       	movw	r26, r24
    2a52:	cb 01       	movw	r24, r22
    2a54:	9c 01       	movw	r18, r24
    2a56:	ad 01       	movw	r20, r26
    2a58:	22 0f       	add	r18, r18
    2a5a:	33 1f       	adc	r19, r19
    2a5c:	44 1f       	adc	r20, r20
    2a5e:	55 1f       	adc	r21, r21
    2a60:	80 e0       	ldi	r24, 0x00	; 0
    2a62:	90 e4       	ldi	r25, 0x40	; 64
    2a64:	a8 e3       	ldi	r26, 0x38	; 56
    2a66:	b0 e0       	ldi	r27, 0x00	; 0
    2a68:	bc 01       	movw	r22, r24
    2a6a:	cd 01       	movw	r24, r26
    2a6c:	0e 94 61 1b 	call	0x36c2	; 0x36c2 <__udivmodsi4>
    2a70:	da 01       	movw	r26, r20
    2a72:	c9 01       	movw	r24, r18
    2a74:	90 93 2a 01 	sts	0x012A, r25
    2a78:	80 93 29 01 	sts	0x0129, r24
    2a7c:	22 96       	adiw	r28, 0x02	; 2
    2a7e:	0f b6       	in	r0, 0x3f	; 63
    2a80:	f8 94       	cli
    2a82:	de bf       	out	0x3e, r29	; 62
    2a84:	0f be       	out	0x3f, r0	; 63
    2a86:	cd bf       	out	0x3d, r28	; 61
    2a88:	df 91       	pop	r29
    2a8a:	cf 91       	pop	r28
    2a8c:	1f 91       	pop	r17
    2a8e:	0f 91       	pop	r16
    2a90:	ff 90       	pop	r15
    2a92:	ef 90       	pop	r14
    2a94:	08 95       	ret

00002a96 <pulseT1BSetFreq>:
    2a96:	ef 92       	push	r14
    2a98:	ff 92       	push	r15
    2a9a:	0f 93       	push	r16
    2a9c:	1f 93       	push	r17
    2a9e:	cf 93       	push	r28
    2aa0:	df 93       	push	r29
    2aa2:	cd b7       	in	r28, 0x3d	; 61
    2aa4:	de b7       	in	r29, 0x3e	; 62
    2aa6:	22 97       	sbiw	r28, 0x02	; 2
    2aa8:	0f b6       	in	r0, 0x3f	; 63
    2aaa:	f8 94       	cli
    2aac:	de bf       	out	0x3e, r29	; 62
    2aae:	0f be       	out	0x3f, r0	; 63
    2ab0:	cd bf       	out	0x3d, r28	; 61
    2ab2:	9a 83       	std	Y+2, r25	; 0x02
    2ab4:	89 83       	std	Y+1, r24	; 0x01
    2ab6:	0e 94 5f 0d 	call	0x1abe	; 0x1abe <timer1GetPrescaler>
    2aba:	7c 01       	movw	r14, r24
    2abc:	00 e0       	ldi	r16, 0x00	; 0
    2abe:	10 e0       	ldi	r17, 0x00	; 0
    2ac0:	89 81       	ldd	r24, Y+1	; 0x01
    2ac2:	9a 81       	ldd	r25, Y+2	; 0x02
    2ac4:	9c 01       	movw	r18, r24
    2ac6:	40 e0       	ldi	r20, 0x00	; 0
    2ac8:	50 e0       	ldi	r21, 0x00	; 0
    2aca:	c8 01       	movw	r24, r16
    2acc:	b7 01       	movw	r22, r14
    2ace:	0e 94 1b 1b 	call	0x3636	; 0x3636 <__mulsi3>
    2ad2:	dc 01       	movw	r26, r24
    2ad4:	cb 01       	movw	r24, r22
    2ad6:	9c 01       	movw	r18, r24
    2ad8:	ad 01       	movw	r20, r26
    2ada:	22 0f       	add	r18, r18
    2adc:	33 1f       	adc	r19, r19
    2ade:	44 1f       	adc	r20, r20
    2ae0:	55 1f       	adc	r21, r21
    2ae2:	80 e0       	ldi	r24, 0x00	; 0
    2ae4:	90 e4       	ldi	r25, 0x40	; 64
    2ae6:	a8 e3       	ldi	r26, 0x38	; 56
    2ae8:	b0 e0       	ldi	r27, 0x00	; 0
    2aea:	bc 01       	movw	r22, r24
    2aec:	cd 01       	movw	r24, r26
    2aee:	0e 94 61 1b 	call	0x36c2	; 0x36c2 <__udivmodsi4>
    2af2:	da 01       	movw	r26, r20
    2af4:	c9 01       	movw	r24, r18
    2af6:	90 93 2f 01 	sts	0x012F, r25
    2afa:	80 93 2e 01 	sts	0x012E, r24
    2afe:	22 96       	adiw	r28, 0x02	; 2
    2b00:	0f b6       	in	r0, 0x3f	; 63
    2b02:	f8 94       	cli
    2b04:	de bf       	out	0x3e, r29	; 62
    2b06:	0f be       	out	0x3f, r0	; 63
    2b08:	cd bf       	out	0x3d, r28	; 61
    2b0a:	df 91       	pop	r29
    2b0c:	cf 91       	pop	r28
    2b0e:	1f 91       	pop	r17
    2b10:	0f 91       	pop	r16
    2b12:	ff 90       	pop	r15
    2b14:	ef 90       	pop	r14
    2b16:	08 95       	ret

00002b18 <pulseT1ARun>:
    2b18:	cf 93       	push	r28
    2b1a:	df 93       	push	r29
    2b1c:	cd b7       	in	r28, 0x3d	; 61
    2b1e:	de b7       	in	r29, 0x3e	; 62
    2b20:	22 97       	sbiw	r28, 0x02	; 2
    2b22:	0f b6       	in	r0, 0x3f	; 63
    2b24:	f8 94       	cli
    2b26:	de bf       	out	0x3e, r29	; 62
    2b28:	0f be       	out	0x3f, r0	; 63
    2b2a:	cd bf       	out	0x3d, r28	; 61
    2b2c:	9a 83       	std	Y+2, r25	; 0x02
    2b2e:	89 83       	std	Y+1, r24	; 0x01
    2b30:	89 81       	ldd	r24, Y+1	; 0x01
    2b32:	9a 81       	ldd	r25, Y+2	; 0x02
    2b34:	00 97       	sbiw	r24, 0x00	; 0
    2b36:	71 f0       	breq	.+28     	; 0x2b54 <pulseT1ARun+0x3c>
    2b38:	80 91 26 01 	lds	r24, 0x0126
    2b3c:	81 60       	ori	r24, 0x01	; 1
    2b3e:	80 93 26 01 	sts	0x0126, r24
    2b42:	89 81       	ldd	r24, Y+1	; 0x01
    2b44:	9a 81       	ldd	r25, Y+2	; 0x02
    2b46:	88 0f       	add	r24, r24
    2b48:	99 1f       	adc	r25, r25
    2b4a:	90 93 28 01 	sts	0x0128, r25
    2b4e:	80 93 27 01 	sts	0x0127, r24
    2b52:	0b c0       	rjmp	.+22     	; 0x2b6a <pulseT1ARun+0x52>
    2b54:	80 91 26 01 	lds	r24, 0x0126
    2b58:	8e 7f       	andi	r24, 0xFE	; 254
    2b5a:	80 93 26 01 	sts	0x0126, r24
    2b5e:	82 e0       	ldi	r24, 0x02	; 2
    2b60:	90 e0       	ldi	r25, 0x00	; 0
    2b62:	90 93 28 01 	sts	0x0128, r25
    2b66:	80 93 27 01 	sts	0x0127, r24
    2b6a:	a0 e8       	ldi	r26, 0x80	; 128
    2b6c:	b0 e0       	ldi	r27, 0x00	; 0
    2b6e:	e0 e8       	ldi	r30, 0x80	; 128
    2b70:	f0 e0       	ldi	r31, 0x00	; 0
    2b72:	90 81       	ld	r25, Z
    2b74:	8f e7       	ldi	r24, 0x7F	; 127
    2b76:	89 23       	and	r24, r25
    2b78:	8c 93       	st	X, r24
    2b7a:	a0 e8       	ldi	r26, 0x80	; 128
    2b7c:	b0 e0       	ldi	r27, 0x00	; 0
    2b7e:	e0 e8       	ldi	r30, 0x80	; 128
    2b80:	f0 e0       	ldi	r31, 0x00	; 0
    2b82:	80 81       	ld	r24, Z
    2b84:	80 64       	ori	r24, 0x40	; 64
    2b86:	8c 93       	st	X, r24
    2b88:	a8 e8       	ldi	r26, 0x88	; 136
    2b8a:	b0 e0       	ldi	r27, 0x00	; 0
    2b8c:	e8 e8       	ldi	r30, 0x88	; 136
    2b8e:	f0 e0       	ldi	r31, 0x00	; 0
    2b90:	20 81       	ld	r18, Z
    2b92:	31 81       	ldd	r19, Z+1	; 0x01
    2b94:	80 91 29 01 	lds	r24, 0x0129
    2b98:	90 91 2a 01 	lds	r25, 0x012A
    2b9c:	82 0f       	add	r24, r18
    2b9e:	93 1f       	adc	r25, r19
    2ba0:	11 96       	adiw	r26, 0x01	; 1
    2ba2:	9c 93       	st	X, r25
    2ba4:	8e 93       	st	-X, r24
    2ba6:	af e6       	ldi	r26, 0x6F	; 111
    2ba8:	b0 e0       	ldi	r27, 0x00	; 0
    2baa:	ef e6       	ldi	r30, 0x6F	; 111
    2bac:	f0 e0       	ldi	r31, 0x00	; 0
    2bae:	80 81       	ld	r24, Z
    2bb0:	82 60       	ori	r24, 0x02	; 2
    2bb2:	8c 93       	st	X, r24
    2bb4:	22 96       	adiw	r28, 0x02	; 2
    2bb6:	0f b6       	in	r0, 0x3f	; 63
    2bb8:	f8 94       	cli
    2bba:	de bf       	out	0x3e, r29	; 62
    2bbc:	0f be       	out	0x3f, r0	; 63
    2bbe:	cd bf       	out	0x3d, r28	; 61
    2bc0:	df 91       	pop	r29
    2bc2:	cf 91       	pop	r28
    2bc4:	08 95       	ret

00002bc6 <pulseT1BRun>:
    2bc6:	cf 93       	push	r28
    2bc8:	df 93       	push	r29
    2bca:	cd b7       	in	r28, 0x3d	; 61
    2bcc:	de b7       	in	r29, 0x3e	; 62
    2bce:	22 97       	sbiw	r28, 0x02	; 2
    2bd0:	0f b6       	in	r0, 0x3f	; 63
    2bd2:	f8 94       	cli
    2bd4:	de bf       	out	0x3e, r29	; 62
    2bd6:	0f be       	out	0x3f, r0	; 63
    2bd8:	cd bf       	out	0x3d, r28	; 61
    2bda:	9a 83       	std	Y+2, r25	; 0x02
    2bdc:	89 83       	std	Y+1, r24	; 0x01
    2bde:	89 81       	ldd	r24, Y+1	; 0x01
    2be0:	9a 81       	ldd	r25, Y+2	; 0x02
    2be2:	00 97       	sbiw	r24, 0x00	; 0
    2be4:	71 f0       	breq	.+28     	; 0x2c02 <pulseT1BRun+0x3c>
    2be6:	80 91 2b 01 	lds	r24, 0x012B
    2bea:	81 60       	ori	r24, 0x01	; 1
    2bec:	80 93 2b 01 	sts	0x012B, r24
    2bf0:	89 81       	ldd	r24, Y+1	; 0x01
    2bf2:	9a 81       	ldd	r25, Y+2	; 0x02
    2bf4:	88 0f       	add	r24, r24
    2bf6:	99 1f       	adc	r25, r25
    2bf8:	90 93 2d 01 	sts	0x012D, r25
    2bfc:	80 93 2c 01 	sts	0x012C, r24
    2c00:	0b c0       	rjmp	.+22     	; 0x2c18 <pulseT1BRun+0x52>
    2c02:	80 91 2b 01 	lds	r24, 0x012B
    2c06:	8e 7f       	andi	r24, 0xFE	; 254
    2c08:	80 93 2b 01 	sts	0x012B, r24
    2c0c:	82 e0       	ldi	r24, 0x02	; 2
    2c0e:	90 e0       	ldi	r25, 0x00	; 0
    2c10:	90 93 2d 01 	sts	0x012D, r25
    2c14:	80 93 2c 01 	sts	0x012C, r24
    2c18:	a0 e8       	ldi	r26, 0x80	; 128
    2c1a:	b0 e0       	ldi	r27, 0x00	; 0
    2c1c:	e0 e8       	ldi	r30, 0x80	; 128
    2c1e:	f0 e0       	ldi	r31, 0x00	; 0
    2c20:	80 81       	ld	r24, Z
    2c22:	8f 7d       	andi	r24, 0xDF	; 223
    2c24:	8c 93       	st	X, r24
    2c26:	a0 e8       	ldi	r26, 0x80	; 128
    2c28:	b0 e0       	ldi	r27, 0x00	; 0
    2c2a:	e0 e8       	ldi	r30, 0x80	; 128
    2c2c:	f0 e0       	ldi	r31, 0x00	; 0
    2c2e:	80 81       	ld	r24, Z
    2c30:	80 61       	ori	r24, 0x10	; 16
    2c32:	8c 93       	st	X, r24
    2c34:	aa e8       	ldi	r26, 0x8A	; 138
    2c36:	b0 e0       	ldi	r27, 0x00	; 0
    2c38:	ea e8       	ldi	r30, 0x8A	; 138
    2c3a:	f0 e0       	ldi	r31, 0x00	; 0
    2c3c:	20 81       	ld	r18, Z
    2c3e:	31 81       	ldd	r19, Z+1	; 0x01
    2c40:	80 91 2e 01 	lds	r24, 0x012E
    2c44:	90 91 2f 01 	lds	r25, 0x012F
    2c48:	82 0f       	add	r24, r18
    2c4a:	93 1f       	adc	r25, r19
    2c4c:	11 96       	adiw	r26, 0x01	; 1
    2c4e:	9c 93       	st	X, r25
    2c50:	8e 93       	st	-X, r24
    2c52:	af e6       	ldi	r26, 0x6F	; 111
    2c54:	b0 e0       	ldi	r27, 0x00	; 0
    2c56:	ef e6       	ldi	r30, 0x6F	; 111
    2c58:	f0 e0       	ldi	r31, 0x00	; 0
    2c5a:	80 81       	ld	r24, Z
    2c5c:	84 60       	ori	r24, 0x04	; 4
    2c5e:	8c 93       	st	X, r24
    2c60:	22 96       	adiw	r28, 0x02	; 2
    2c62:	0f b6       	in	r0, 0x3f	; 63
    2c64:	f8 94       	cli
    2c66:	de bf       	out	0x3e, r29	; 62
    2c68:	0f be       	out	0x3f, r0	; 63
    2c6a:	cd bf       	out	0x3d, r28	; 61
    2c6c:	df 91       	pop	r29
    2c6e:	cf 91       	pop	r28
    2c70:	08 95       	ret

00002c72 <pulseT1AStop>:
    2c72:	cf 93       	push	r28
    2c74:	df 93       	push	r29
    2c76:	cd b7       	in	r28, 0x3d	; 61
    2c78:	de b7       	in	r29, 0x3e	; 62
    2c7a:	80 91 26 01 	lds	r24, 0x0126
    2c7e:	81 60       	ori	r24, 0x01	; 1
    2c80:	80 93 26 01 	sts	0x0126, r24
    2c84:	10 92 28 01 	sts	0x0128, r1
    2c88:	10 92 27 01 	sts	0x0127, r1
    2c8c:	df 91       	pop	r29
    2c8e:	cf 91       	pop	r28
    2c90:	08 95       	ret

00002c92 <pulseT1BStop>:
    2c92:	cf 93       	push	r28
    2c94:	df 93       	push	r29
    2c96:	cd b7       	in	r28, 0x3d	; 61
    2c98:	de b7       	in	r29, 0x3e	; 62
    2c9a:	80 91 2b 01 	lds	r24, 0x012B
    2c9e:	81 60       	ori	r24, 0x01	; 1
    2ca0:	80 93 2b 01 	sts	0x012B, r24
    2ca4:	10 92 2d 01 	sts	0x012D, r1
    2ca8:	10 92 2c 01 	sts	0x012C, r1
    2cac:	df 91       	pop	r29
    2cae:	cf 91       	pop	r28
    2cb0:	08 95       	ret

00002cb2 <pulseT1ARemaining>:
    2cb2:	cf 93       	push	r28
    2cb4:	df 93       	push	r29
    2cb6:	cd b7       	in	r28, 0x3d	; 61
    2cb8:	de b7       	in	r29, 0x3e	; 62
    2cba:	80 91 27 01 	lds	r24, 0x0127
    2cbe:	90 91 28 01 	lds	r25, 0x0128
    2cc2:	01 96       	adiw	r24, 0x01	; 1
    2cc4:	96 95       	lsr	r25
    2cc6:	87 95       	ror	r24
    2cc8:	df 91       	pop	r29
    2cca:	cf 91       	pop	r28
    2ccc:	08 95       	ret

00002cce <pulseT1BRemaining>:
    2cce:	cf 93       	push	r28
    2cd0:	df 93       	push	r29
    2cd2:	cd b7       	in	r28, 0x3d	; 61
    2cd4:	de b7       	in	r29, 0x3e	; 62
    2cd6:	80 91 2c 01 	lds	r24, 0x012C
    2cda:	90 91 2d 01 	lds	r25, 0x012D
    2cde:	01 96       	adiw	r24, 0x01	; 1
    2ce0:	96 95       	lsr	r25
    2ce2:	87 95       	ror	r24
    2ce4:	df 91       	pop	r29
    2ce6:	cf 91       	pop	r28
    2ce8:	08 95       	ret

00002cea <pulseT1AService>:
    2cea:	cf 93       	push	r28
    2cec:	df 93       	push	r29
    2cee:	cd b7       	in	r28, 0x3d	; 61
    2cf0:	de b7       	in	r29, 0x3e	; 62
    2cf2:	80 91 27 01 	lds	r24, 0x0127
    2cf6:	90 91 28 01 	lds	r25, 0x0128
    2cfa:	00 97       	sbiw	r24, 0x00	; 0
    2cfc:	09 f1       	breq	.+66     	; 0x2d40 <pulseT1AService+0x56>
    2cfe:	a8 e8       	ldi	r26, 0x88	; 136
    2d00:	b0 e0       	ldi	r27, 0x00	; 0
    2d02:	e8 e8       	ldi	r30, 0x88	; 136
    2d04:	f0 e0       	ldi	r31, 0x00	; 0
    2d06:	20 81       	ld	r18, Z
    2d08:	31 81       	ldd	r19, Z+1	; 0x01
    2d0a:	80 91 29 01 	lds	r24, 0x0129
    2d0e:	90 91 2a 01 	lds	r25, 0x012A
    2d12:	82 0f       	add	r24, r18
    2d14:	93 1f       	adc	r25, r19
    2d16:	11 96       	adiw	r26, 0x01	; 1
    2d18:	9c 93       	st	X, r25
    2d1a:	8e 93       	st	-X, r24
    2d1c:	80 91 26 01 	lds	r24, 0x0126
    2d20:	88 2f       	mov	r24, r24
    2d22:	90 e0       	ldi	r25, 0x00	; 0
    2d24:	81 70       	andi	r24, 0x01	; 1
    2d26:	90 70       	andi	r25, 0x00	; 0
    2d28:	88 23       	and	r24, r24
    2d2a:	01 f1       	breq	.+64     	; 0x2d6c <pulseT1AService+0x82>
    2d2c:	80 91 27 01 	lds	r24, 0x0127
    2d30:	90 91 28 01 	lds	r25, 0x0128
    2d34:	01 97       	sbiw	r24, 0x01	; 1
    2d36:	90 93 28 01 	sts	0x0128, r25
    2d3a:	80 93 27 01 	sts	0x0127, r24
    2d3e:	16 c0       	rjmp	.+44     	; 0x2d6c <pulseT1AService+0x82>
    2d40:	a0 e8       	ldi	r26, 0x80	; 128
    2d42:	b0 e0       	ldi	r27, 0x00	; 0
    2d44:	e0 e8       	ldi	r30, 0x80	; 128
    2d46:	f0 e0       	ldi	r31, 0x00	; 0
    2d48:	90 81       	ld	r25, Z
    2d4a:	8f e7       	ldi	r24, 0x7F	; 127
    2d4c:	89 23       	and	r24, r25
    2d4e:	8c 93       	st	X, r24
    2d50:	a0 e8       	ldi	r26, 0x80	; 128
    2d52:	b0 e0       	ldi	r27, 0x00	; 0
    2d54:	e0 e8       	ldi	r30, 0x80	; 128
    2d56:	f0 e0       	ldi	r31, 0x00	; 0
    2d58:	80 81       	ld	r24, Z
    2d5a:	8f 7b       	andi	r24, 0xBF	; 191
    2d5c:	8c 93       	st	X, r24
    2d5e:	af e6       	ldi	r26, 0x6F	; 111
    2d60:	b0 e0       	ldi	r27, 0x00	; 0
    2d62:	ef e6       	ldi	r30, 0x6F	; 111
    2d64:	f0 e0       	ldi	r31, 0x00	; 0
    2d66:	80 81       	ld	r24, Z
    2d68:	8d 7f       	andi	r24, 0xFD	; 253
    2d6a:	8c 93       	st	X, r24
    2d6c:	df 91       	pop	r29
    2d6e:	cf 91       	pop	r28
    2d70:	08 95       	ret

00002d72 <pulseT1BService>:
    2d72:	cf 93       	push	r28
    2d74:	df 93       	push	r29
    2d76:	cd b7       	in	r28, 0x3d	; 61
    2d78:	de b7       	in	r29, 0x3e	; 62
    2d7a:	80 91 2c 01 	lds	r24, 0x012C
    2d7e:	90 91 2d 01 	lds	r25, 0x012D
    2d82:	00 97       	sbiw	r24, 0x00	; 0
    2d84:	09 f1       	breq	.+66     	; 0x2dc8 <pulseT1BService+0x56>
    2d86:	aa e8       	ldi	r26, 0x8A	; 138
    2d88:	b0 e0       	ldi	r27, 0x00	; 0
    2d8a:	ea e8       	ldi	r30, 0x8A	; 138
    2d8c:	f0 e0       	ldi	r31, 0x00	; 0
    2d8e:	20 81       	ld	r18, Z
    2d90:	31 81       	ldd	r19, Z+1	; 0x01
    2d92:	80 91 2e 01 	lds	r24, 0x012E
    2d96:	90 91 2f 01 	lds	r25, 0x012F
    2d9a:	82 0f       	add	r24, r18
    2d9c:	93 1f       	adc	r25, r19
    2d9e:	11 96       	adiw	r26, 0x01	; 1
    2da0:	9c 93       	st	X, r25
    2da2:	8e 93       	st	-X, r24
    2da4:	80 91 2b 01 	lds	r24, 0x012B
    2da8:	88 2f       	mov	r24, r24
    2daa:	90 e0       	ldi	r25, 0x00	; 0
    2dac:	81 70       	andi	r24, 0x01	; 1
    2dae:	90 70       	andi	r25, 0x00	; 0
    2db0:	88 23       	and	r24, r24
    2db2:	f9 f0       	breq	.+62     	; 0x2df2 <pulseT1BService+0x80>
    2db4:	80 91 2c 01 	lds	r24, 0x012C
    2db8:	90 91 2d 01 	lds	r25, 0x012D
    2dbc:	01 97       	sbiw	r24, 0x01	; 1
    2dbe:	90 93 2d 01 	sts	0x012D, r25
    2dc2:	80 93 2c 01 	sts	0x012C, r24
    2dc6:	15 c0       	rjmp	.+42     	; 0x2df2 <pulseT1BService+0x80>
    2dc8:	a0 e8       	ldi	r26, 0x80	; 128
    2dca:	b0 e0       	ldi	r27, 0x00	; 0
    2dcc:	e0 e8       	ldi	r30, 0x80	; 128
    2dce:	f0 e0       	ldi	r31, 0x00	; 0
    2dd0:	80 81       	ld	r24, Z
    2dd2:	8f 7d       	andi	r24, 0xDF	; 223
    2dd4:	8c 93       	st	X, r24
    2dd6:	a0 e8       	ldi	r26, 0x80	; 128
    2dd8:	b0 e0       	ldi	r27, 0x00	; 0
    2dda:	e0 e8       	ldi	r30, 0x80	; 128
    2ddc:	f0 e0       	ldi	r31, 0x00	; 0
    2dde:	80 81       	ld	r24, Z
    2de0:	8f 7e       	andi	r24, 0xEF	; 239
    2de2:	8c 93       	st	X, r24
    2de4:	af e6       	ldi	r26, 0x6F	; 111
    2de6:	b0 e0       	ldi	r27, 0x00	; 0
    2de8:	ef e6       	ldi	r30, 0x6F	; 111
    2dea:	f0 e0       	ldi	r31, 0x00	; 0
    2dec:	80 81       	ld	r24, Z
    2dee:	8b 7f       	andi	r24, 0xFB	; 251
    2df0:	8c 93       	st	X, r24
    2df2:	df 91       	pop	r29
    2df4:	cf 91       	pop	r28
    2df6:	08 95       	ret

00002df8 <uartInit>:
    2df8:	cf 93       	push	r28
    2dfa:	df 93       	push	r29
    2dfc:	cd b7       	in	r28, 0x3d	; 61
    2dfe:	de b7       	in	r29, 0x3e	; 62
    2e00:	0e 94 1d 17 	call	0x2e3a	; 0x2e3a <uartInitBuffers>
    2e04:	10 92 b1 01 	sts	0x01B1, r1
    2e08:	10 92 b0 01 	sts	0x01B0, r1
    2e0c:	e1 ec       	ldi	r30, 0xC1	; 193
    2e0e:	f0 e0       	ldi	r31, 0x00	; 0
    2e10:	88 ed       	ldi	r24, 0xD8	; 216
    2e12:	80 83       	st	Z, r24
    2e14:	60 e8       	ldi	r22, 0x80	; 128
    2e16:	75 e2       	ldi	r23, 0x25	; 37
    2e18:	80 e0       	ldi	r24, 0x00	; 0
    2e1a:	90 e0       	ldi	r25, 0x00	; 0
    2e1c:	0e 94 53 17 	call	0x2ea6	; 0x2ea6 <uartSetBaudRate>
    2e20:	8f ef       	ldi	r24, 0xFF	; 255
    2e22:	80 93 ae 02 	sts	0x02AE, r24
    2e26:	10 92 b7 02 	sts	0x02B7, r1
    2e2a:	10 92 c1 02 	sts	0x02C1, r1
    2e2e:	10 92 c0 02 	sts	0x02C0, r1
    2e32:	78 94       	sei
    2e34:	df 91       	pop	r29
    2e36:	cf 91       	pop	r28
    2e38:	08 95       	ret

00002e3a <uartInitBuffers>:
    2e3a:	cf 93       	push	r28
    2e3c:	df 93       	push	r29
    2e3e:	cd b7       	in	r28, 0x3d	; 61
    2e40:	de b7       	in	r29, 0x3e	; 62
    2e42:	80 e3       	ldi	r24, 0x30	; 48
    2e44:	91 e0       	ldi	r25, 0x01	; 1
    2e46:	2f ea       	ldi	r18, 0xAF	; 175
    2e48:	32 e0       	ldi	r19, 0x02	; 2
    2e4a:	40 e4       	ldi	r20, 0x40	; 64
    2e4c:	50 e0       	ldi	r21, 0x00	; 0
    2e4e:	bc 01       	movw	r22, r24
    2e50:	c9 01       	movw	r24, r18
    2e52:	0e 94 33 19 	call	0x3266	; 0x3266 <bufferInit>
    2e56:	80 e7       	ldi	r24, 0x70	; 112
    2e58:	91 e0       	ldi	r25, 0x01	; 1
    2e5a:	28 eb       	ldi	r18, 0xB8	; 184
    2e5c:	32 e0       	ldi	r19, 0x02	; 2
    2e5e:	40 e4       	ldi	r20, 0x40	; 64
    2e60:	50 e0       	ldi	r21, 0x00	; 0
    2e62:	bc 01       	movw	r22, r24
    2e64:	c9 01       	movw	r24, r18
    2e66:	0e 94 33 19 	call	0x3266	; 0x3266 <bufferInit>
    2e6a:	df 91       	pop	r29
    2e6c:	cf 91       	pop	r28
    2e6e:	08 95       	ret

00002e70 <uartSetRxHandler>:
    2e70:	cf 93       	push	r28
    2e72:	df 93       	push	r29
    2e74:	cd b7       	in	r28, 0x3d	; 61
    2e76:	de b7       	in	r29, 0x3e	; 62
    2e78:	22 97       	sbiw	r28, 0x02	; 2
    2e7a:	0f b6       	in	r0, 0x3f	; 63
    2e7c:	f8 94       	cli
    2e7e:	de bf       	out	0x3e, r29	; 62
    2e80:	0f be       	out	0x3f, r0	; 63
    2e82:	cd bf       	out	0x3d, r28	; 61
    2e84:	9a 83       	std	Y+2, r25	; 0x02
    2e86:	89 83       	std	Y+1, r24	; 0x01
    2e88:	89 81       	ldd	r24, Y+1	; 0x01
    2e8a:	9a 81       	ldd	r25, Y+2	; 0x02
    2e8c:	90 93 b1 01 	sts	0x01B1, r25
    2e90:	80 93 b0 01 	sts	0x01B0, r24
    2e94:	22 96       	adiw	r28, 0x02	; 2
    2e96:	0f b6       	in	r0, 0x3f	; 63
    2e98:	f8 94       	cli
    2e9a:	de bf       	out	0x3e, r29	; 62
    2e9c:	0f be       	out	0x3f, r0	; 63
    2e9e:	cd bf       	out	0x3d, r28	; 61
    2ea0:	df 91       	pop	r29
    2ea2:	cf 91       	pop	r28
    2ea4:	08 95       	ret

00002ea6 <uartSetBaudRate>:
    2ea6:	ef 92       	push	r14
    2ea8:	ff 92       	push	r15
    2eaa:	0f 93       	push	r16
    2eac:	1f 93       	push	r17
    2eae:	cf 93       	push	r28
    2eb0:	df 93       	push	r29
    2eb2:	cd b7       	in	r28, 0x3d	; 61
    2eb4:	de b7       	in	r29, 0x3e	; 62
    2eb6:	26 97       	sbiw	r28, 0x06	; 6
    2eb8:	0f b6       	in	r0, 0x3f	; 63
    2eba:	f8 94       	cli
    2ebc:	de bf       	out	0x3e, r29	; 62
    2ebe:	0f be       	out	0x3f, r0	; 63
    2ec0:	cd bf       	out	0x3d, r28	; 61
    2ec2:	6b 83       	std	Y+3, r22	; 0x03
    2ec4:	7c 83       	std	Y+4, r23	; 0x04
    2ec6:	8d 83       	std	Y+5, r24	; 0x05
    2ec8:	9e 83       	std	Y+6, r25	; 0x06
    2eca:	8b 81       	ldd	r24, Y+3	; 0x03
    2ecc:	9c 81       	ldd	r25, Y+4	; 0x04
    2ece:	ad 81       	ldd	r26, Y+5	; 0x05
    2ed0:	be 81       	ldd	r27, Y+6	; 0x06
    2ed2:	88 0f       	add	r24, r24
    2ed4:	99 1f       	adc	r25, r25
    2ed6:	aa 1f       	adc	r26, r26
    2ed8:	bb 1f       	adc	r27, r27
    2eda:	88 0f       	add	r24, r24
    2edc:	99 1f       	adc	r25, r25
    2ede:	aa 1f       	adc	r26, r26
    2ee0:	bb 1f       	adc	r27, r27
    2ee2:	88 0f       	add	r24, r24
    2ee4:	99 1f       	adc	r25, r25
    2ee6:	aa 1f       	adc	r26, r26
    2ee8:	bb 1f       	adc	r27, r27
    2eea:	0f 2e       	mov	r0, r31
    2eec:	f0 e0       	ldi	r31, 0x00	; 0
    2eee:	ef 2e       	mov	r14, r31
    2ef0:	f0 e4       	ldi	r31, 0x40	; 64
    2ef2:	ff 2e       	mov	r15, r31
    2ef4:	f8 e3       	ldi	r31, 0x38	; 56
    2ef6:	0f 2f       	mov	r16, r31
    2ef8:	f0 e0       	ldi	r31, 0x00	; 0
    2efa:	1f 2f       	mov	r17, r31
    2efc:	f0 2d       	mov	r31, r0
    2efe:	e8 0e       	add	r14, r24
    2f00:	f9 1e       	adc	r15, r25
    2f02:	0a 1f       	adc	r16, r26
    2f04:	1b 1f       	adc	r17, r27
    2f06:	8b 81       	ldd	r24, Y+3	; 0x03
    2f08:	9c 81       	ldd	r25, Y+4	; 0x04
    2f0a:	ad 81       	ldd	r26, Y+5	; 0x05
    2f0c:	be 81       	ldd	r27, Y+6	; 0x06
    2f0e:	88 0f       	add	r24, r24
    2f10:	99 1f       	adc	r25, r25
    2f12:	aa 1f       	adc	r26, r26
    2f14:	bb 1f       	adc	r27, r27
    2f16:	88 0f       	add	r24, r24
    2f18:	99 1f       	adc	r25, r25
    2f1a:	aa 1f       	adc	r26, r26
    2f1c:	bb 1f       	adc	r27, r27
    2f1e:	88 0f       	add	r24, r24
    2f20:	99 1f       	adc	r25, r25
    2f22:	aa 1f       	adc	r26, r26
    2f24:	bb 1f       	adc	r27, r27
    2f26:	88 0f       	add	r24, r24
    2f28:	99 1f       	adc	r25, r25
    2f2a:	aa 1f       	adc	r26, r26
    2f2c:	bb 1f       	adc	r27, r27
    2f2e:	9c 01       	movw	r18, r24
    2f30:	ad 01       	movw	r20, r26
    2f32:	c8 01       	movw	r24, r16
    2f34:	b7 01       	movw	r22, r14
    2f36:	0e 94 61 1b 	call	0x36c2	; 0x36c2 <__udivmodsi4>
    2f3a:	da 01       	movw	r26, r20
    2f3c:	c9 01       	movw	r24, r18
    2f3e:	01 97       	sbiw	r24, 0x01	; 1
    2f40:	9a 83       	std	Y+2, r25	; 0x02
    2f42:	89 83       	std	Y+1, r24	; 0x01
    2f44:	e4 ec       	ldi	r30, 0xC4	; 196
    2f46:	f0 e0       	ldi	r31, 0x00	; 0
    2f48:	89 81       	ldd	r24, Y+1	; 0x01
    2f4a:	80 83       	st	Z, r24
    2f4c:	e5 ec       	ldi	r30, 0xC5	; 197
    2f4e:	f0 e0       	ldi	r31, 0x00	; 0
    2f50:	89 81       	ldd	r24, Y+1	; 0x01
    2f52:	9a 81       	ldd	r25, Y+2	; 0x02
    2f54:	89 2f       	mov	r24, r25
    2f56:	99 27       	eor	r25, r25
    2f58:	80 83       	st	Z, r24
    2f5a:	26 96       	adiw	r28, 0x06	; 6
    2f5c:	0f b6       	in	r0, 0x3f	; 63
    2f5e:	f8 94       	cli
    2f60:	de bf       	out	0x3e, r29	; 62
    2f62:	0f be       	out	0x3f, r0	; 63
    2f64:	cd bf       	out	0x3d, r28	; 61
    2f66:	df 91       	pop	r29
    2f68:	cf 91       	pop	r28
    2f6a:	1f 91       	pop	r17
    2f6c:	0f 91       	pop	r16
    2f6e:	ff 90       	pop	r15
    2f70:	ef 90       	pop	r14
    2f72:	08 95       	ret

00002f74 <uartGetRxBuffer>:
    2f74:	cf 93       	push	r28
    2f76:	df 93       	push	r29
    2f78:	cd b7       	in	r28, 0x3d	; 61
    2f7a:	de b7       	in	r29, 0x3e	; 62
    2f7c:	8f ea       	ldi	r24, 0xAF	; 175
    2f7e:	92 e0       	ldi	r25, 0x02	; 2
    2f80:	df 91       	pop	r29
    2f82:	cf 91       	pop	r28
    2f84:	08 95       	ret

00002f86 <uartGetTxBuffer>:
    2f86:	cf 93       	push	r28
    2f88:	df 93       	push	r29
    2f8a:	cd b7       	in	r28, 0x3d	; 61
    2f8c:	de b7       	in	r29, 0x3e	; 62
    2f8e:	88 eb       	ldi	r24, 0xB8	; 184
    2f90:	92 e0       	ldi	r25, 0x02	; 2
    2f92:	df 91       	pop	r29
    2f94:	cf 91       	pop	r28
    2f96:	08 95       	ret

00002f98 <uartSendByte>:
    2f98:	cf 93       	push	r28
    2f9a:	df 93       	push	r29
    2f9c:	cd b7       	in	r28, 0x3d	; 61
    2f9e:	de b7       	in	r29, 0x3e	; 62
    2fa0:	21 97       	sbiw	r28, 0x01	; 1
    2fa2:	0f b6       	in	r0, 0x3f	; 63
    2fa4:	f8 94       	cli
    2fa6:	de bf       	out	0x3e, r29	; 62
    2fa8:	0f be       	out	0x3f, r0	; 63
    2faa:	cd bf       	out	0x3d, r28	; 61
    2fac:	89 83       	std	Y+1, r24	; 0x01
    2fae:	80 91 ae 02 	lds	r24, 0x02AE
    2fb2:	88 23       	and	r24, r24
    2fb4:	e1 f3       	breq	.-8      	; 0x2fae <uartSendByte+0x16>
    2fb6:	e6 ec       	ldi	r30, 0xC6	; 198
    2fb8:	f0 e0       	ldi	r31, 0x00	; 0
    2fba:	89 81       	ldd	r24, Y+1	; 0x01
    2fbc:	80 83       	st	Z, r24
    2fbe:	10 92 ae 02 	sts	0x02AE, r1
    2fc2:	21 96       	adiw	r28, 0x01	; 1
    2fc4:	0f b6       	in	r0, 0x3f	; 63
    2fc6:	f8 94       	cli
    2fc8:	de bf       	out	0x3e, r29	; 62
    2fca:	0f be       	out	0x3f, r0	; 63
    2fcc:	cd bf       	out	0x3d, r28	; 61
    2fce:	df 91       	pop	r29
    2fd0:	cf 91       	pop	r28
    2fd2:	08 95       	ret

00002fd4 <uartGetByte>:
    2fd4:	cf 93       	push	r28
    2fd6:	df 93       	push	r29
    2fd8:	cd b7       	in	r28, 0x3d	; 61
    2fda:	de b7       	in	r29, 0x3e	; 62
    2fdc:	23 97       	sbiw	r28, 0x03	; 3
    2fde:	0f b6       	in	r0, 0x3f	; 63
    2fe0:	f8 94       	cli
    2fe2:	de bf       	out	0x3e, r29	; 62
    2fe4:	0f be       	out	0x3f, r0	; 63
    2fe6:	cd bf       	out	0x3d, r28	; 61
    2fe8:	ce 01       	movw	r24, r28
    2fea:	01 96       	adiw	r24, 0x01	; 1
    2fec:	0e 94 0f 18 	call	0x301e	; 0x301e <uartReceiveByte>
    2ff0:	88 23       	and	r24, r24
    2ff2:	31 f0       	breq	.+12     	; 0x3000 <uartGetByte+0x2c>
    2ff4:	89 81       	ldd	r24, Y+1	; 0x01
    2ff6:	28 2f       	mov	r18, r24
    2ff8:	30 e0       	ldi	r19, 0x00	; 0
    2ffa:	3b 83       	std	Y+3, r19	; 0x03
    2ffc:	2a 83       	std	Y+2, r18	; 0x02
    2ffe:	04 c0       	rjmp	.+8      	; 0x3008 <uartGetByte+0x34>
    3000:	8f ef       	ldi	r24, 0xFF	; 255
    3002:	9f ef       	ldi	r25, 0xFF	; 255
    3004:	9b 83       	std	Y+3, r25	; 0x03
    3006:	8a 83       	std	Y+2, r24	; 0x02
    3008:	8a 81       	ldd	r24, Y+2	; 0x02
    300a:	9b 81       	ldd	r25, Y+3	; 0x03
    300c:	23 96       	adiw	r28, 0x03	; 3
    300e:	0f b6       	in	r0, 0x3f	; 63
    3010:	f8 94       	cli
    3012:	de bf       	out	0x3e, r29	; 62
    3014:	0f be       	out	0x3f, r0	; 63
    3016:	cd bf       	out	0x3d, r28	; 61
    3018:	df 91       	pop	r29
    301a:	cf 91       	pop	r28
    301c:	08 95       	ret

0000301e <uartReceiveByte>:
    301e:	cf 93       	push	r28
    3020:	df 93       	push	r29
    3022:	cd b7       	in	r28, 0x3d	; 61
    3024:	de b7       	in	r29, 0x3e	; 62
    3026:	24 97       	sbiw	r28, 0x04	; 4
    3028:	0f b6       	in	r0, 0x3f	; 63
    302a:	f8 94       	cli
    302c:	de bf       	out	0x3e, r29	; 62
    302e:	0f be       	out	0x3f, r0	; 63
    3030:	cd bf       	out	0x3d, r28	; 61
    3032:	9a 83       	std	Y+2, r25	; 0x02
    3034:	89 83       	std	Y+1, r24	; 0x01
    3036:	80 91 b1 02 	lds	r24, 0x02B1
    303a:	90 91 b2 02 	lds	r25, 0x02B2
    303e:	00 97       	sbiw	r24, 0x00	; 0
    3040:	a9 f0       	breq	.+42     	; 0x306c <uartReceiveByte+0x4e>
    3042:	80 91 b3 02 	lds	r24, 0x02B3
    3046:	90 91 b4 02 	lds	r25, 0x02B4
    304a:	00 97       	sbiw	r24, 0x00	; 0
    304c:	61 f0       	breq	.+24     	; 0x3066 <uartReceiveByte+0x48>
    304e:	8f ea       	ldi	r24, 0xAF	; 175
    3050:	92 e0       	ldi	r25, 0x02	; 2
    3052:	0e 94 69 19 	call	0x32d2	; 0x32d2 <bufferGetFromFront>
    3056:	e9 81       	ldd	r30, Y+1	; 0x01
    3058:	fa 81       	ldd	r31, Y+2	; 0x02
    305a:	80 83       	st	Z, r24
    305c:	8f ef       	ldi	r24, 0xFF	; 255
    305e:	90 e0       	ldi	r25, 0x00	; 0
    3060:	9c 83       	std	Y+4, r25	; 0x04
    3062:	8b 83       	std	Y+3, r24	; 0x03
    3064:	05 c0       	rjmp	.+10     	; 0x3070 <uartReceiveByte+0x52>
    3066:	1c 82       	std	Y+4, r1	; 0x04
    3068:	1b 82       	std	Y+3, r1	; 0x03
    306a:	02 c0       	rjmp	.+4      	; 0x3070 <uartReceiveByte+0x52>
    306c:	1c 82       	std	Y+4, r1	; 0x04
    306e:	1b 82       	std	Y+3, r1	; 0x03
    3070:	8b 81       	ldd	r24, Y+3	; 0x03
    3072:	9c 81       	ldd	r25, Y+4	; 0x04
    3074:	24 96       	adiw	r28, 0x04	; 4
    3076:	0f b6       	in	r0, 0x3f	; 63
    3078:	f8 94       	cli
    307a:	de bf       	out	0x3e, r29	; 62
    307c:	0f be       	out	0x3f, r0	; 63
    307e:	cd bf       	out	0x3d, r28	; 61
    3080:	df 91       	pop	r29
    3082:	cf 91       	pop	r28
    3084:	08 95       	ret

00003086 <uartFlushReceiveBuffer>:
    3086:	cf 93       	push	r28
    3088:	df 93       	push	r29
    308a:	cd b7       	in	r28, 0x3d	; 61
    308c:	de b7       	in	r29, 0x3e	; 62
    308e:	10 92 b4 02 	sts	0x02B4, r1
    3092:	10 92 b3 02 	sts	0x02B3, r1
    3096:	df 91       	pop	r29
    3098:	cf 91       	pop	r28
    309a:	08 95       	ret

0000309c <uartReceiveBufferIsEmpty>:
    309c:	cf 93       	push	r28
    309e:	df 93       	push	r29
    30a0:	cd b7       	in	r28, 0x3d	; 61
    30a2:	de b7       	in	r29, 0x3e	; 62
    30a4:	22 97       	sbiw	r28, 0x02	; 2
    30a6:	0f b6       	in	r0, 0x3f	; 63
    30a8:	f8 94       	cli
    30aa:	de bf       	out	0x3e, r29	; 62
    30ac:	0f be       	out	0x3f, r0	; 63
    30ae:	cd bf       	out	0x3d, r28	; 61
    30b0:	80 91 b3 02 	lds	r24, 0x02B3
    30b4:	90 91 b4 02 	lds	r25, 0x02B4
    30b8:	00 97       	sbiw	r24, 0x00	; 0
    30ba:	29 f4       	brne	.+10     	; 0x30c6 <uartReceiveBufferIsEmpty+0x2a>
    30bc:	8f ef       	ldi	r24, 0xFF	; 255
    30be:	90 e0       	ldi	r25, 0x00	; 0
    30c0:	9a 83       	std	Y+2, r25	; 0x02
    30c2:	89 83       	std	Y+1, r24	; 0x01
    30c4:	02 c0       	rjmp	.+4      	; 0x30ca <uartReceiveBufferIsEmpty+0x2e>
    30c6:	1a 82       	std	Y+2, r1	; 0x02
    30c8:	19 82       	std	Y+1, r1	; 0x01
    30ca:	89 81       	ldd	r24, Y+1	; 0x01
    30cc:	9a 81       	ldd	r25, Y+2	; 0x02
    30ce:	22 96       	adiw	r28, 0x02	; 2
    30d0:	0f b6       	in	r0, 0x3f	; 63
    30d2:	f8 94       	cli
    30d4:	de bf       	out	0x3e, r29	; 62
    30d6:	0f be       	out	0x3f, r0	; 63
    30d8:	cd bf       	out	0x3d, r28	; 61
    30da:	df 91       	pop	r29
    30dc:	cf 91       	pop	r28
    30de:	08 95       	ret

000030e0 <uartAddToTxBuffer>:
    30e0:	cf 93       	push	r28
    30e2:	df 93       	push	r29
    30e4:	cd b7       	in	r28, 0x3d	; 61
    30e6:	de b7       	in	r29, 0x3e	; 62
    30e8:	21 97       	sbiw	r28, 0x01	; 1
    30ea:	0f b6       	in	r0, 0x3f	; 63
    30ec:	f8 94       	cli
    30ee:	de bf       	out	0x3e, r29	; 62
    30f0:	0f be       	out	0x3f, r0	; 63
    30f2:	cd bf       	out	0x3d, r28	; 61
    30f4:	89 83       	std	Y+1, r24	; 0x01
    30f6:	88 eb       	ldi	r24, 0xB8	; 184
    30f8:	92 e0       	ldi	r25, 0x02	; 2
    30fa:	69 81       	ldd	r22, Y+1	; 0x01
    30fc:	0e 94 6d 1a 	call	0x34da	; 0x34da <bufferAddToEnd>
    3100:	88 2f       	mov	r24, r24
    3102:	90 e0       	ldi	r25, 0x00	; 0
    3104:	21 96       	adiw	r28, 0x01	; 1
    3106:	0f b6       	in	r0, 0x3f	; 63
    3108:	f8 94       	cli
    310a:	de bf       	out	0x3e, r29	; 62
    310c:	0f be       	out	0x3f, r0	; 63
    310e:	cd bf       	out	0x3d, r28	; 61
    3110:	df 91       	pop	r29
    3112:	cf 91       	pop	r28
    3114:	08 95       	ret

00003116 <uartSendTxBuffer>:
    3116:	cf 93       	push	r28
    3118:	df 93       	push	r29
    311a:	cd b7       	in	r28, 0x3d	; 61
    311c:	de b7       	in	r29, 0x3e	; 62
    311e:	8f ef       	ldi	r24, 0xFF	; 255
    3120:	80 93 b7 02 	sts	0x02B7, r24
    3124:	88 eb       	ldi	r24, 0xB8	; 184
    3126:	92 e0       	ldi	r25, 0x02	; 2
    3128:	0e 94 69 19 	call	0x32d2	; 0x32d2 <bufferGetFromFront>
    312c:	0e 94 cc 17 	call	0x2f98	; 0x2f98 <uartSendByte>
    3130:	df 91       	pop	r29
    3132:	cf 91       	pop	r28
    3134:	08 95       	ret

00003136 <__vector_20>:
    3136:	1f 92       	push	r1
    3138:	0f 92       	push	r0
    313a:	0f b6       	in	r0, 0x3f	; 63
    313c:	0f 92       	push	r0
    313e:	11 24       	eor	r1, r1
    3140:	0f 93       	push	r16
    3142:	1f 93       	push	r17
    3144:	2f 93       	push	r18
    3146:	3f 93       	push	r19
    3148:	4f 93       	push	r20
    314a:	5f 93       	push	r21
    314c:	6f 93       	push	r22
    314e:	7f 93       	push	r23
    3150:	8f 93       	push	r24
    3152:	9f 93       	push	r25
    3154:	af 93       	push	r26
    3156:	bf 93       	push	r27
    3158:	ef 93       	push	r30
    315a:	ff 93       	push	r31
    315c:	cf 93       	push	r28
    315e:	df 93       	push	r29
    3160:	cd b7       	in	r28, 0x3d	; 61
    3162:	de b7       	in	r29, 0x3e	; 62
    3164:	80 91 b7 02 	lds	r24, 0x02B7
    3168:	88 23       	and	r24, r24
    316a:	a9 f0       	breq	.+42     	; 0x3196 <__vector_20+0x60>
    316c:	80 91 bc 02 	lds	r24, 0x02BC
    3170:	90 91 bd 02 	lds	r25, 0x02BD
    3174:	00 97       	sbiw	r24, 0x00	; 0
    3176:	49 f0       	breq	.+18     	; 0x318a <__vector_20+0x54>
    3178:	06 ec       	ldi	r16, 0xC6	; 198
    317a:	10 e0       	ldi	r17, 0x00	; 0
    317c:	88 eb       	ldi	r24, 0xB8	; 184
    317e:	92 e0       	ldi	r25, 0x02	; 2
    3180:	0e 94 69 19 	call	0x32d2	; 0x32d2 <bufferGetFromFront>
    3184:	f8 01       	movw	r30, r16
    3186:	80 83       	st	Z, r24
    3188:	09 c0       	rjmp	.+18     	; 0x319c <__vector_20+0x66>
    318a:	10 92 b7 02 	sts	0x02B7, r1
    318e:	8f ef       	ldi	r24, 0xFF	; 255
    3190:	80 93 ae 02 	sts	0x02AE, r24
    3194:	03 c0       	rjmp	.+6      	; 0x319c <__vector_20+0x66>
    3196:	8f ef       	ldi	r24, 0xFF	; 255
    3198:	80 93 ae 02 	sts	0x02AE, r24
    319c:	df 91       	pop	r29
    319e:	cf 91       	pop	r28
    31a0:	ff 91       	pop	r31
    31a2:	ef 91       	pop	r30
    31a4:	bf 91       	pop	r27
    31a6:	af 91       	pop	r26
    31a8:	9f 91       	pop	r25
    31aa:	8f 91       	pop	r24
    31ac:	7f 91       	pop	r23
    31ae:	6f 91       	pop	r22
    31b0:	5f 91       	pop	r21
    31b2:	4f 91       	pop	r20
    31b4:	3f 91       	pop	r19
    31b6:	2f 91       	pop	r18
    31b8:	1f 91       	pop	r17
    31ba:	0f 91       	pop	r16
    31bc:	0f 90       	pop	r0
    31be:	0f be       	out	0x3f, r0	; 63
    31c0:	0f 90       	pop	r0
    31c2:	1f 90       	pop	r1
    31c4:	18 95       	reti

000031c6 <__vector_18>:
    31c6:	1f 92       	push	r1
    31c8:	0f 92       	push	r0
    31ca:	0f b6       	in	r0, 0x3f	; 63
    31cc:	0f 92       	push	r0
    31ce:	11 24       	eor	r1, r1
    31d0:	2f 93       	push	r18
    31d2:	3f 93       	push	r19
    31d4:	4f 93       	push	r20
    31d6:	5f 93       	push	r21
    31d8:	6f 93       	push	r22
    31da:	7f 93       	push	r23
    31dc:	8f 93       	push	r24
    31de:	9f 93       	push	r25
    31e0:	af 93       	push	r26
    31e2:	bf 93       	push	r27
    31e4:	ef 93       	push	r30
    31e6:	ff 93       	push	r31
    31e8:	cf 93       	push	r28
    31ea:	df 93       	push	r29
    31ec:	cd b7       	in	r28, 0x3d	; 61
    31ee:	de b7       	in	r29, 0x3e	; 62
    31f0:	21 97       	sbiw	r28, 0x01	; 1
    31f2:	de bf       	out	0x3e, r29	; 62
    31f4:	cd bf       	out	0x3d, r28	; 61
    31f6:	e6 ec       	ldi	r30, 0xC6	; 198
    31f8:	f0 e0       	ldi	r31, 0x00	; 0
    31fa:	80 81       	ld	r24, Z
    31fc:	89 83       	std	Y+1, r24	; 0x01
    31fe:	80 91 b0 01 	lds	r24, 0x01B0
    3202:	90 91 b1 01 	lds	r25, 0x01B1
    3206:	00 97       	sbiw	r24, 0x00	; 0
    3208:	39 f0       	breq	.+14     	; 0x3218 <__vector_18+0x52>
    320a:	e0 91 b0 01 	lds	r30, 0x01B0
    320e:	f0 91 b1 01 	lds	r31, 0x01B1
    3212:	89 81       	ldd	r24, Y+1	; 0x01
    3214:	09 95       	icall
    3216:	10 c0       	rjmp	.+32     	; 0x3238 <__vector_18+0x72>
    3218:	8f ea       	ldi	r24, 0xAF	; 175
    321a:	92 e0       	ldi	r25, 0x02	; 2
    321c:	69 81       	ldd	r22, Y+1	; 0x01
    321e:	0e 94 6d 1a 	call	0x34da	; 0x34da <bufferAddToEnd>
    3222:	88 23       	and	r24, r24
    3224:	49 f4       	brne	.+18     	; 0x3238 <__vector_18+0x72>
    3226:	80 91 c0 02 	lds	r24, 0x02C0
    322a:	90 91 c1 02 	lds	r25, 0x02C1
    322e:	01 96       	adiw	r24, 0x01	; 1
    3230:	90 93 c1 02 	sts	0x02C1, r25
    3234:	80 93 c0 02 	sts	0x02C0, r24
    3238:	21 96       	adiw	r28, 0x01	; 1
    323a:	f8 94       	cli
    323c:	de bf       	out	0x3e, r29	; 62
    323e:	cd bf       	out	0x3d, r28	; 61
    3240:	df 91       	pop	r29
    3242:	cf 91       	pop	r28
    3244:	ff 91       	pop	r31
    3246:	ef 91       	pop	r30
    3248:	bf 91       	pop	r27
    324a:	af 91       	pop	r26
    324c:	9f 91       	pop	r25
    324e:	8f 91       	pop	r24
    3250:	7f 91       	pop	r23
    3252:	6f 91       	pop	r22
    3254:	5f 91       	pop	r21
    3256:	4f 91       	pop	r20
    3258:	3f 91       	pop	r19
    325a:	2f 91       	pop	r18
    325c:	0f 90       	pop	r0
    325e:	0f be       	out	0x3f, r0	; 63
    3260:	0f 90       	pop	r0
    3262:	1f 90       	pop	r1
    3264:	18 95       	reti

00003266 <bufferInit>:
    3266:	cf 93       	push	r28
    3268:	df 93       	push	r29
    326a:	cd b7       	in	r28, 0x3d	; 61
    326c:	de b7       	in	r29, 0x3e	; 62
    326e:	27 97       	sbiw	r28, 0x07	; 7
    3270:	0f b6       	in	r0, 0x3f	; 63
    3272:	f8 94       	cli
    3274:	de bf       	out	0x3e, r29	; 62
    3276:	0f be       	out	0x3f, r0	; 63
    3278:	cd bf       	out	0x3d, r28	; 61
    327a:	9b 83       	std	Y+3, r25	; 0x03
    327c:	8a 83       	std	Y+2, r24	; 0x02
    327e:	7d 83       	std	Y+5, r23	; 0x05
    3280:	6c 83       	std	Y+4, r22	; 0x04
    3282:	5f 83       	std	Y+7, r21	; 0x07
    3284:	4e 83       	std	Y+6, r20	; 0x06
    3286:	ef e5       	ldi	r30, 0x5F	; 95
    3288:	f0 e0       	ldi	r31, 0x00	; 0
    328a:	80 81       	ld	r24, Z
    328c:	89 83       	std	Y+1, r24	; 0x01
    328e:	f8 94       	cli
    3290:	ea 81       	ldd	r30, Y+2	; 0x02
    3292:	fb 81       	ldd	r31, Y+3	; 0x03
    3294:	8c 81       	ldd	r24, Y+4	; 0x04
    3296:	9d 81       	ldd	r25, Y+5	; 0x05
    3298:	91 83       	std	Z+1, r25	; 0x01
    329a:	80 83       	st	Z, r24
    329c:	ea 81       	ldd	r30, Y+2	; 0x02
    329e:	fb 81       	ldd	r31, Y+3	; 0x03
    32a0:	8e 81       	ldd	r24, Y+6	; 0x06
    32a2:	9f 81       	ldd	r25, Y+7	; 0x07
    32a4:	93 83       	std	Z+3, r25	; 0x03
    32a6:	82 83       	std	Z+2, r24	; 0x02
    32a8:	ea 81       	ldd	r30, Y+2	; 0x02
    32aa:	fb 81       	ldd	r31, Y+3	; 0x03
    32ac:	17 82       	std	Z+7, r1	; 0x07
    32ae:	16 82       	std	Z+6, r1	; 0x06
    32b0:	ea 81       	ldd	r30, Y+2	; 0x02
    32b2:	fb 81       	ldd	r31, Y+3	; 0x03
    32b4:	15 82       	std	Z+5, r1	; 0x05
    32b6:	14 82       	std	Z+4, r1	; 0x04
    32b8:	ef e5       	ldi	r30, 0x5F	; 95
    32ba:	f0 e0       	ldi	r31, 0x00	; 0
    32bc:	89 81       	ldd	r24, Y+1	; 0x01
    32be:	80 83       	st	Z, r24
    32c0:	27 96       	adiw	r28, 0x07	; 7
    32c2:	0f b6       	in	r0, 0x3f	; 63
    32c4:	f8 94       	cli
    32c6:	de bf       	out	0x3e, r29	; 62
    32c8:	0f be       	out	0x3f, r0	; 63
    32ca:	cd bf       	out	0x3d, r28	; 61
    32cc:	df 91       	pop	r29
    32ce:	cf 91       	pop	r28
    32d0:	08 95       	ret

000032d2 <bufferGetFromFront>:
    32d2:	cf 93       	push	r28
    32d4:	df 93       	push	r29
    32d6:	cd b7       	in	r28, 0x3d	; 61
    32d8:	de b7       	in	r29, 0x3e	; 62
    32da:	24 97       	sbiw	r28, 0x04	; 4
    32dc:	0f b6       	in	r0, 0x3f	; 63
    32de:	f8 94       	cli
    32e0:	de bf       	out	0x3e, r29	; 62
    32e2:	0f be       	out	0x3f, r0	; 63
    32e4:	cd bf       	out	0x3d, r28	; 61
    32e6:	9c 83       	std	Y+4, r25	; 0x04
    32e8:	8b 83       	std	Y+3, r24	; 0x03
    32ea:	1a 82       	std	Y+2, r1	; 0x02
    32ec:	ef e5       	ldi	r30, 0x5F	; 95
    32ee:	f0 e0       	ldi	r31, 0x00	; 0
    32f0:	80 81       	ld	r24, Z
    32f2:	89 83       	std	Y+1, r24	; 0x01
    32f4:	f8 94       	cli
    32f6:	eb 81       	ldd	r30, Y+3	; 0x03
    32f8:	fc 81       	ldd	r31, Y+4	; 0x04
    32fa:	84 81       	ldd	r24, Z+4	; 0x04
    32fc:	95 81       	ldd	r25, Z+5	; 0x05
    32fe:	00 97       	sbiw	r24, 0x00	; 0
    3300:	d1 f1       	breq	.+116    	; 0x3376 <bufferGetFromFront+0xa4>
    3302:	eb 81       	ldd	r30, Y+3	; 0x03
    3304:	fc 81       	ldd	r31, Y+4	; 0x04
    3306:	20 81       	ld	r18, Z
    3308:	31 81       	ldd	r19, Z+1	; 0x01
    330a:	eb 81       	ldd	r30, Y+3	; 0x03
    330c:	fc 81       	ldd	r31, Y+4	; 0x04
    330e:	86 81       	ldd	r24, Z+6	; 0x06
    3310:	97 81       	ldd	r25, Z+7	; 0x07
    3312:	f9 01       	movw	r30, r18
    3314:	e8 0f       	add	r30, r24
    3316:	f9 1f       	adc	r31, r25
    3318:	80 81       	ld	r24, Z
    331a:	8a 83       	std	Y+2, r24	; 0x02
    331c:	eb 81       	ldd	r30, Y+3	; 0x03
    331e:	fc 81       	ldd	r31, Y+4	; 0x04
    3320:	86 81       	ldd	r24, Z+6	; 0x06
    3322:	97 81       	ldd	r25, Z+7	; 0x07
    3324:	01 96       	adiw	r24, 0x01	; 1
    3326:	eb 81       	ldd	r30, Y+3	; 0x03
    3328:	fc 81       	ldd	r31, Y+4	; 0x04
    332a:	97 83       	std	Z+7, r25	; 0x07
    332c:	86 83       	std	Z+6, r24	; 0x06
    332e:	eb 81       	ldd	r30, Y+3	; 0x03
    3330:	fc 81       	ldd	r31, Y+4	; 0x04
    3332:	26 81       	ldd	r18, Z+6	; 0x06
    3334:	37 81       	ldd	r19, Z+7	; 0x07
    3336:	eb 81       	ldd	r30, Y+3	; 0x03
    3338:	fc 81       	ldd	r31, Y+4	; 0x04
    333a:	82 81       	ldd	r24, Z+2	; 0x02
    333c:	93 81       	ldd	r25, Z+3	; 0x03
    333e:	28 17       	cp	r18, r24
    3340:	39 07       	cpc	r19, r25
    3342:	80 f0       	brcs	.+32     	; 0x3364 <bufferGetFromFront+0x92>
    3344:	eb 81       	ldd	r30, Y+3	; 0x03
    3346:	fc 81       	ldd	r31, Y+4	; 0x04
    3348:	26 81       	ldd	r18, Z+6	; 0x06
    334a:	37 81       	ldd	r19, Z+7	; 0x07
    334c:	eb 81       	ldd	r30, Y+3	; 0x03
    334e:	fc 81       	ldd	r31, Y+4	; 0x04
    3350:	82 81       	ldd	r24, Z+2	; 0x02
    3352:	93 81       	ldd	r25, Z+3	; 0x03
    3354:	a9 01       	movw	r20, r18
    3356:	48 1b       	sub	r20, r24
    3358:	59 0b       	sbc	r21, r25
    335a:	ca 01       	movw	r24, r20
    335c:	eb 81       	ldd	r30, Y+3	; 0x03
    335e:	fc 81       	ldd	r31, Y+4	; 0x04
    3360:	97 83       	std	Z+7, r25	; 0x07
    3362:	86 83       	std	Z+6, r24	; 0x06
    3364:	eb 81       	ldd	r30, Y+3	; 0x03
    3366:	fc 81       	ldd	r31, Y+4	; 0x04
    3368:	84 81       	ldd	r24, Z+4	; 0x04
    336a:	95 81       	ldd	r25, Z+5	; 0x05
    336c:	01 97       	sbiw	r24, 0x01	; 1
    336e:	eb 81       	ldd	r30, Y+3	; 0x03
    3370:	fc 81       	ldd	r31, Y+4	; 0x04
    3372:	95 83       	std	Z+5, r25	; 0x05
    3374:	84 83       	std	Z+4, r24	; 0x04
    3376:	ef e5       	ldi	r30, 0x5F	; 95
    3378:	f0 e0       	ldi	r31, 0x00	; 0
    337a:	89 81       	ldd	r24, Y+1	; 0x01
    337c:	80 83       	st	Z, r24
    337e:	8a 81       	ldd	r24, Y+2	; 0x02
    3380:	88 2f       	mov	r24, r24
    3382:	90 e0       	ldi	r25, 0x00	; 0
    3384:	24 96       	adiw	r28, 0x04	; 4
    3386:	0f b6       	in	r0, 0x3f	; 63
    3388:	f8 94       	cli
    338a:	de bf       	out	0x3e, r29	; 62
    338c:	0f be       	out	0x3f, r0	; 63
    338e:	cd bf       	out	0x3d, r28	; 61
    3390:	df 91       	pop	r29
    3392:	cf 91       	pop	r28
    3394:	08 95       	ret

00003396 <bufferDumpFromFront>:
    3396:	cf 93       	push	r28
    3398:	df 93       	push	r29
    339a:	cd b7       	in	r28, 0x3d	; 61
    339c:	de b7       	in	r29, 0x3e	; 62
    339e:	25 97       	sbiw	r28, 0x05	; 5
    33a0:	0f b6       	in	r0, 0x3f	; 63
    33a2:	f8 94       	cli
    33a4:	de bf       	out	0x3e, r29	; 62
    33a6:	0f be       	out	0x3f, r0	; 63
    33a8:	cd bf       	out	0x3d, r28	; 61
    33aa:	9b 83       	std	Y+3, r25	; 0x03
    33ac:	8a 83       	std	Y+2, r24	; 0x02
    33ae:	7d 83       	std	Y+5, r23	; 0x05
    33b0:	6c 83       	std	Y+4, r22	; 0x04
    33b2:	ef e5       	ldi	r30, 0x5F	; 95
    33b4:	f0 e0       	ldi	r31, 0x00	; 0
    33b6:	80 81       	ld	r24, Z
    33b8:	89 83       	std	Y+1, r24	; 0x01
    33ba:	f8 94       	cli
    33bc:	ea 81       	ldd	r30, Y+2	; 0x02
    33be:	fb 81       	ldd	r31, Y+3	; 0x03
    33c0:	24 81       	ldd	r18, Z+4	; 0x04
    33c2:	35 81       	ldd	r19, Z+5	; 0x05
    33c4:	8c 81       	ldd	r24, Y+4	; 0x04
    33c6:	9d 81       	ldd	r25, Y+5	; 0x05
    33c8:	82 17       	cp	r24, r18
    33ca:	93 07       	cpc	r25, r19
    33cc:	b0 f5       	brcc	.+108    	; 0x343a <bufferDumpFromFront+0xa4>
    33ce:	ea 81       	ldd	r30, Y+2	; 0x02
    33d0:	fb 81       	ldd	r31, Y+3	; 0x03
    33d2:	26 81       	ldd	r18, Z+6	; 0x06
    33d4:	37 81       	ldd	r19, Z+7	; 0x07
    33d6:	8c 81       	ldd	r24, Y+4	; 0x04
    33d8:	9d 81       	ldd	r25, Y+5	; 0x05
    33da:	82 0f       	add	r24, r18
    33dc:	93 1f       	adc	r25, r19
    33de:	ea 81       	ldd	r30, Y+2	; 0x02
    33e0:	fb 81       	ldd	r31, Y+3	; 0x03
    33e2:	97 83       	std	Z+7, r25	; 0x07
    33e4:	86 83       	std	Z+6, r24	; 0x06
    33e6:	ea 81       	ldd	r30, Y+2	; 0x02
    33e8:	fb 81       	ldd	r31, Y+3	; 0x03
    33ea:	26 81       	ldd	r18, Z+6	; 0x06
    33ec:	37 81       	ldd	r19, Z+7	; 0x07
    33ee:	ea 81       	ldd	r30, Y+2	; 0x02
    33f0:	fb 81       	ldd	r31, Y+3	; 0x03
    33f2:	82 81       	ldd	r24, Z+2	; 0x02
    33f4:	93 81       	ldd	r25, Z+3	; 0x03
    33f6:	28 17       	cp	r18, r24
    33f8:	39 07       	cpc	r19, r25
    33fa:	80 f0       	brcs	.+32     	; 0x341c <bufferDumpFromFront+0x86>
    33fc:	ea 81       	ldd	r30, Y+2	; 0x02
    33fe:	fb 81       	ldd	r31, Y+3	; 0x03
    3400:	26 81       	ldd	r18, Z+6	; 0x06
    3402:	37 81       	ldd	r19, Z+7	; 0x07
    3404:	ea 81       	ldd	r30, Y+2	; 0x02
    3406:	fb 81       	ldd	r31, Y+3	; 0x03
    3408:	82 81       	ldd	r24, Z+2	; 0x02
    340a:	93 81       	ldd	r25, Z+3	; 0x03
    340c:	a9 01       	movw	r20, r18
    340e:	48 1b       	sub	r20, r24
    3410:	59 0b       	sbc	r21, r25
    3412:	ca 01       	movw	r24, r20
    3414:	ea 81       	ldd	r30, Y+2	; 0x02
    3416:	fb 81       	ldd	r31, Y+3	; 0x03
    3418:	97 83       	std	Z+7, r25	; 0x07
    341a:	86 83       	std	Z+6, r24	; 0x06
    341c:	ea 81       	ldd	r30, Y+2	; 0x02
    341e:	fb 81       	ldd	r31, Y+3	; 0x03
    3420:	24 81       	ldd	r18, Z+4	; 0x04
    3422:	35 81       	ldd	r19, Z+5	; 0x05
    3424:	8c 81       	ldd	r24, Y+4	; 0x04
    3426:	9d 81       	ldd	r25, Y+5	; 0x05
    3428:	a9 01       	movw	r20, r18
    342a:	48 1b       	sub	r20, r24
    342c:	59 0b       	sbc	r21, r25
    342e:	ca 01       	movw	r24, r20
    3430:	ea 81       	ldd	r30, Y+2	; 0x02
    3432:	fb 81       	ldd	r31, Y+3	; 0x03
    3434:	95 83       	std	Z+5, r25	; 0x05
    3436:	84 83       	std	Z+4, r24	; 0x04
    3438:	04 c0       	rjmp	.+8      	; 0x3442 <bufferDumpFromFront+0xac>
    343a:	ea 81       	ldd	r30, Y+2	; 0x02
    343c:	fb 81       	ldd	r31, Y+3	; 0x03
    343e:	15 82       	std	Z+5, r1	; 0x05
    3440:	14 82       	std	Z+4, r1	; 0x04
    3442:	ef e5       	ldi	r30, 0x5F	; 95
    3444:	f0 e0       	ldi	r31, 0x00	; 0
    3446:	89 81       	ldd	r24, Y+1	; 0x01
    3448:	80 83       	st	Z, r24
    344a:	25 96       	adiw	r28, 0x05	; 5
    344c:	0f b6       	in	r0, 0x3f	; 63
    344e:	f8 94       	cli
    3450:	de bf       	out	0x3e, r29	; 62
    3452:	0f be       	out	0x3f, r0	; 63
    3454:	cd bf       	out	0x3d, r28	; 61
    3456:	df 91       	pop	r29
    3458:	cf 91       	pop	r28
    345a:	08 95       	ret

0000345c <bufferGetAtIndex>:
    345c:	0f 93       	push	r16
    345e:	1f 93       	push	r17
    3460:	cf 93       	push	r28
    3462:	df 93       	push	r29
    3464:	cd b7       	in	r28, 0x3d	; 61
    3466:	de b7       	in	r29, 0x3e	; 62
    3468:	26 97       	sbiw	r28, 0x06	; 6
    346a:	0f b6       	in	r0, 0x3f	; 63
    346c:	f8 94       	cli
    346e:	de bf       	out	0x3e, r29	; 62
    3470:	0f be       	out	0x3f, r0	; 63
    3472:	cd bf       	out	0x3d, r28	; 61
    3474:	9c 83       	std	Y+4, r25	; 0x04
    3476:	8b 83       	std	Y+3, r24	; 0x03
    3478:	7e 83       	std	Y+6, r23	; 0x06
    347a:	6d 83       	std	Y+5, r22	; 0x05
    347c:	ef e5       	ldi	r30, 0x5F	; 95
    347e:	f0 e0       	ldi	r31, 0x00	; 0
    3480:	80 81       	ld	r24, Z
    3482:	8a 83       	std	Y+2, r24	; 0x02
    3484:	f8 94       	cli
    3486:	eb 81       	ldd	r30, Y+3	; 0x03
    3488:	fc 81       	ldd	r31, Y+4	; 0x04
    348a:	00 81       	ld	r16, Z
    348c:	11 81       	ldd	r17, Z+1	; 0x01
    348e:	eb 81       	ldd	r30, Y+3	; 0x03
    3490:	fc 81       	ldd	r31, Y+4	; 0x04
    3492:	26 81       	ldd	r18, Z+6	; 0x06
    3494:	37 81       	ldd	r19, Z+7	; 0x07
    3496:	8d 81       	ldd	r24, Y+5	; 0x05
    3498:	9e 81       	ldd	r25, Y+6	; 0x06
    349a:	82 0f       	add	r24, r18
    349c:	93 1f       	adc	r25, r19
    349e:	eb 81       	ldd	r30, Y+3	; 0x03
    34a0:	fc 81       	ldd	r31, Y+4	; 0x04
    34a2:	22 81       	ldd	r18, Z+2	; 0x02
    34a4:	33 81       	ldd	r19, Z+3	; 0x03
    34a6:	b9 01       	movw	r22, r18
    34a8:	0e 94 3a 1b 	call	0x3674	; 0x3674 <__udivmodhi4>
    34ac:	f8 01       	movw	r30, r16
    34ae:	e8 0f       	add	r30, r24
    34b0:	f9 1f       	adc	r31, r25
    34b2:	80 81       	ld	r24, Z
    34b4:	89 83       	std	Y+1, r24	; 0x01
    34b6:	ef e5       	ldi	r30, 0x5F	; 95
    34b8:	f0 e0       	ldi	r31, 0x00	; 0
    34ba:	8a 81       	ldd	r24, Y+2	; 0x02
    34bc:	80 83       	st	Z, r24
    34be:	89 81       	ldd	r24, Y+1	; 0x01
    34c0:	88 2f       	mov	r24, r24
    34c2:	90 e0       	ldi	r25, 0x00	; 0
    34c4:	26 96       	adiw	r28, 0x06	; 6
    34c6:	0f b6       	in	r0, 0x3f	; 63
    34c8:	f8 94       	cli
    34ca:	de bf       	out	0x3e, r29	; 62
    34cc:	0f be       	out	0x3f, r0	; 63
    34ce:	cd bf       	out	0x3d, r28	; 61
    34d0:	df 91       	pop	r29
    34d2:	cf 91       	pop	r28
    34d4:	1f 91       	pop	r17
    34d6:	0f 91       	pop	r16
    34d8:	08 95       	ret

000034da <bufferAddToEnd>:
    34da:	0f 93       	push	r16
    34dc:	1f 93       	push	r17
    34de:	cf 93       	push	r28
    34e0:	df 93       	push	r29
    34e2:	cd b7       	in	r28, 0x3d	; 61
    34e4:	de b7       	in	r29, 0x3e	; 62
    34e6:	26 97       	sbiw	r28, 0x06	; 6
    34e8:	0f b6       	in	r0, 0x3f	; 63
    34ea:	f8 94       	cli
    34ec:	de bf       	out	0x3e, r29	; 62
    34ee:	0f be       	out	0x3f, r0	; 63
    34f0:	cd bf       	out	0x3d, r28	; 61
    34f2:	9b 83       	std	Y+3, r25	; 0x03
    34f4:	8a 83       	std	Y+2, r24	; 0x02
    34f6:	6c 83       	std	Y+4, r22	; 0x04
    34f8:	ef e5       	ldi	r30, 0x5F	; 95
    34fa:	f0 e0       	ldi	r31, 0x00	; 0
    34fc:	80 81       	ld	r24, Z
    34fe:	89 83       	std	Y+1, r24	; 0x01
    3500:	f8 94       	cli
    3502:	ea 81       	ldd	r30, Y+2	; 0x02
    3504:	fb 81       	ldd	r31, Y+3	; 0x03
    3506:	24 81       	ldd	r18, Z+4	; 0x04
    3508:	35 81       	ldd	r19, Z+5	; 0x05
    350a:	ea 81       	ldd	r30, Y+2	; 0x02
    350c:	fb 81       	ldd	r31, Y+3	; 0x03
    350e:	82 81       	ldd	r24, Z+2	; 0x02
    3510:	93 81       	ldd	r25, Z+3	; 0x03
    3512:	28 17       	cp	r18, r24
    3514:	39 07       	cpc	r19, r25
    3516:	60 f5       	brcc	.+88     	; 0x3570 <bufferAddToEnd+0x96>
    3518:	ea 81       	ldd	r30, Y+2	; 0x02
    351a:	fb 81       	ldd	r31, Y+3	; 0x03
    351c:	00 81       	ld	r16, Z
    351e:	11 81       	ldd	r17, Z+1	; 0x01
    3520:	ea 81       	ldd	r30, Y+2	; 0x02
    3522:	fb 81       	ldd	r31, Y+3	; 0x03
    3524:	26 81       	ldd	r18, Z+6	; 0x06
    3526:	37 81       	ldd	r19, Z+7	; 0x07
    3528:	ea 81       	ldd	r30, Y+2	; 0x02
    352a:	fb 81       	ldd	r31, Y+3	; 0x03
    352c:	84 81       	ldd	r24, Z+4	; 0x04
    352e:	95 81       	ldd	r25, Z+5	; 0x05
    3530:	82 0f       	add	r24, r18
    3532:	93 1f       	adc	r25, r19
    3534:	ea 81       	ldd	r30, Y+2	; 0x02
    3536:	fb 81       	ldd	r31, Y+3	; 0x03
    3538:	22 81       	ldd	r18, Z+2	; 0x02
    353a:	33 81       	ldd	r19, Z+3	; 0x03
    353c:	b9 01       	movw	r22, r18
    353e:	0e 94 3a 1b 	call	0x3674	; 0x3674 <__udivmodhi4>
    3542:	f8 01       	movw	r30, r16
    3544:	e8 0f       	add	r30, r24
    3546:	f9 1f       	adc	r31, r25
    3548:	8c 81       	ldd	r24, Y+4	; 0x04
    354a:	80 83       	st	Z, r24
    354c:	ea 81       	ldd	r30, Y+2	; 0x02
    354e:	fb 81       	ldd	r31, Y+3	; 0x03
    3550:	84 81       	ldd	r24, Z+4	; 0x04
    3552:	95 81       	ldd	r25, Z+5	; 0x05
    3554:	01 96       	adiw	r24, 0x01	; 1
    3556:	ea 81       	ldd	r30, Y+2	; 0x02
    3558:	fb 81       	ldd	r31, Y+3	; 0x03
    355a:	95 83       	std	Z+5, r25	; 0x05
    355c:	84 83       	std	Z+4, r24	; 0x04
    355e:	ef e5       	ldi	r30, 0x5F	; 95
    3560:	f0 e0       	ldi	r31, 0x00	; 0
    3562:	89 81       	ldd	r24, Y+1	; 0x01
    3564:	80 83       	st	Z, r24
    3566:	8f ef       	ldi	r24, 0xFF	; 255
    3568:	90 e0       	ldi	r25, 0x00	; 0
    356a:	9e 83       	std	Y+6, r25	; 0x06
    356c:	8d 83       	std	Y+5, r24	; 0x05
    356e:	06 c0       	rjmp	.+12     	; 0x357c <bufferAddToEnd+0xa2>
    3570:	ef e5       	ldi	r30, 0x5F	; 95
    3572:	f0 e0       	ldi	r31, 0x00	; 0
    3574:	89 81       	ldd	r24, Y+1	; 0x01
    3576:	80 83       	st	Z, r24
    3578:	1e 82       	std	Y+6, r1	; 0x06
    357a:	1d 82       	std	Y+5, r1	; 0x05
    357c:	8d 81       	ldd	r24, Y+5	; 0x05
    357e:	9e 81       	ldd	r25, Y+6	; 0x06
    3580:	26 96       	adiw	r28, 0x06	; 6
    3582:	0f b6       	in	r0, 0x3f	; 63
    3584:	f8 94       	cli
    3586:	de bf       	out	0x3e, r29	; 62
    3588:	0f be       	out	0x3f, r0	; 63
    358a:	cd bf       	out	0x3d, r28	; 61
    358c:	df 91       	pop	r29
    358e:	cf 91       	pop	r28
    3590:	1f 91       	pop	r17
    3592:	0f 91       	pop	r16
    3594:	08 95       	ret

00003596 <bufferIsNotFull>:
    3596:	cf 93       	push	r28
    3598:	df 93       	push	r29
    359a:	cd b7       	in	r28, 0x3d	; 61
    359c:	de b7       	in	r29, 0x3e	; 62
    359e:	25 97       	sbiw	r28, 0x05	; 5
    35a0:	0f b6       	in	r0, 0x3f	; 63
    35a2:	f8 94       	cli
    35a4:	de bf       	out	0x3e, r29	; 62
    35a6:	0f be       	out	0x3f, r0	; 63
    35a8:	cd bf       	out	0x3d, r28	; 61
    35aa:	9d 83       	std	Y+5, r25	; 0x05
    35ac:	8c 83       	std	Y+4, r24	; 0x04
    35ae:	ef e5       	ldi	r30, 0x5F	; 95
    35b0:	f0 e0       	ldi	r31, 0x00	; 0
    35b2:	80 81       	ld	r24, Z
    35b4:	8b 83       	std	Y+3, r24	; 0x03
    35b6:	f8 94       	cli
    35b8:	ec 81       	ldd	r30, Y+4	; 0x04
    35ba:	fd 81       	ldd	r31, Y+5	; 0x05
    35bc:	22 81       	ldd	r18, Z+2	; 0x02
    35be:	33 81       	ldd	r19, Z+3	; 0x03
    35c0:	ec 81       	ldd	r30, Y+4	; 0x04
    35c2:	fd 81       	ldd	r31, Y+5	; 0x05
    35c4:	84 81       	ldd	r24, Z+4	; 0x04
    35c6:	95 81       	ldd	r25, Z+5	; 0x05
    35c8:	a9 01       	movw	r20, r18
    35ca:	48 1b       	sub	r20, r24
    35cc:	59 0b       	sbc	r21, r25
    35ce:	ca 01       	movw	r24, r20
    35d0:	9a 83       	std	Y+2, r25	; 0x02
    35d2:	89 83       	std	Y+1, r24	; 0x01
    35d4:	ef e5       	ldi	r30, 0x5F	; 95
    35d6:	f0 e0       	ldi	r31, 0x00	; 0
    35d8:	8b 81       	ldd	r24, Y+3	; 0x03
    35da:	80 83       	st	Z, r24
    35dc:	89 81       	ldd	r24, Y+1	; 0x01
    35de:	9a 81       	ldd	r25, Y+2	; 0x02
    35e0:	25 96       	adiw	r28, 0x05	; 5
    35e2:	0f b6       	in	r0, 0x3f	; 63
    35e4:	f8 94       	cli
    35e6:	de bf       	out	0x3e, r29	; 62
    35e8:	0f be       	out	0x3f, r0	; 63
    35ea:	cd bf       	out	0x3d, r28	; 61
    35ec:	df 91       	pop	r29
    35ee:	cf 91       	pop	r28
    35f0:	08 95       	ret

000035f2 <bufferFlush>:
    35f2:	cf 93       	push	r28
    35f4:	df 93       	push	r29
    35f6:	cd b7       	in	r28, 0x3d	; 61
    35f8:	de b7       	in	r29, 0x3e	; 62
    35fa:	23 97       	sbiw	r28, 0x03	; 3
    35fc:	0f b6       	in	r0, 0x3f	; 63
    35fe:	f8 94       	cli
    3600:	de bf       	out	0x3e, r29	; 62
    3602:	0f be       	out	0x3f, r0	; 63
    3604:	cd bf       	out	0x3d, r28	; 61
    3606:	9b 83       	std	Y+3, r25	; 0x03
    3608:	8a 83       	std	Y+2, r24	; 0x02
    360a:	ef e5       	ldi	r30, 0x5F	; 95
    360c:	f0 e0       	ldi	r31, 0x00	; 0
    360e:	80 81       	ld	r24, Z
    3610:	89 83       	std	Y+1, r24	; 0x01
    3612:	f8 94       	cli
    3614:	ea 81       	ldd	r30, Y+2	; 0x02
    3616:	fb 81       	ldd	r31, Y+3	; 0x03
    3618:	15 82       	std	Z+5, r1	; 0x05
    361a:	14 82       	std	Z+4, r1	; 0x04
    361c:	ef e5       	ldi	r30, 0x5F	; 95
    361e:	f0 e0       	ldi	r31, 0x00	; 0
    3620:	89 81       	ldd	r24, Y+1	; 0x01
    3622:	80 83       	st	Z, r24
    3624:	23 96       	adiw	r28, 0x03	; 3
    3626:	0f b6       	in	r0, 0x3f	; 63
    3628:	f8 94       	cli
    362a:	de bf       	out	0x3e, r29	; 62
    362c:	0f be       	out	0x3f, r0	; 63
    362e:	cd bf       	out	0x3d, r28	; 61
    3630:	df 91       	pop	r29
    3632:	cf 91       	pop	r28
    3634:	08 95       	ret

00003636 <__mulsi3>:
    3636:	62 9f       	mul	r22, r18
    3638:	d0 01       	movw	r26, r0
    363a:	73 9f       	mul	r23, r19
    363c:	f0 01       	movw	r30, r0
    363e:	82 9f       	mul	r24, r18
    3640:	e0 0d       	add	r30, r0
    3642:	f1 1d       	adc	r31, r1
    3644:	64 9f       	mul	r22, r20
    3646:	e0 0d       	add	r30, r0
    3648:	f1 1d       	adc	r31, r1
    364a:	92 9f       	mul	r25, r18
    364c:	f0 0d       	add	r31, r0
    364e:	83 9f       	mul	r24, r19
    3650:	f0 0d       	add	r31, r0
    3652:	74 9f       	mul	r23, r20
    3654:	f0 0d       	add	r31, r0
    3656:	65 9f       	mul	r22, r21
    3658:	f0 0d       	add	r31, r0
    365a:	99 27       	eor	r25, r25
    365c:	72 9f       	mul	r23, r18
    365e:	b0 0d       	add	r27, r0
    3660:	e1 1d       	adc	r30, r1
    3662:	f9 1f       	adc	r31, r25
    3664:	63 9f       	mul	r22, r19
    3666:	b0 0d       	add	r27, r0
    3668:	e1 1d       	adc	r30, r1
    366a:	f9 1f       	adc	r31, r25
    366c:	bd 01       	movw	r22, r26
    366e:	cf 01       	movw	r24, r30
    3670:	11 24       	eor	r1, r1
    3672:	08 95       	ret

00003674 <__udivmodhi4>:
    3674:	aa 1b       	sub	r26, r26
    3676:	bb 1b       	sub	r27, r27
    3678:	51 e1       	ldi	r21, 0x11	; 17
    367a:	07 c0       	rjmp	.+14     	; 0x368a <__udivmodhi4_ep>

0000367c <__udivmodhi4_loop>:
    367c:	aa 1f       	adc	r26, r26
    367e:	bb 1f       	adc	r27, r27
    3680:	a6 17       	cp	r26, r22
    3682:	b7 07       	cpc	r27, r23
    3684:	10 f0       	brcs	.+4      	; 0x368a <__udivmodhi4_ep>
    3686:	a6 1b       	sub	r26, r22
    3688:	b7 0b       	sbc	r27, r23

0000368a <__udivmodhi4_ep>:
    368a:	88 1f       	adc	r24, r24
    368c:	99 1f       	adc	r25, r25
    368e:	5a 95       	dec	r21
    3690:	a9 f7       	brne	.-22     	; 0x367c <__udivmodhi4_loop>
    3692:	80 95       	com	r24
    3694:	90 95       	com	r25
    3696:	bc 01       	movw	r22, r24
    3698:	cd 01       	movw	r24, r26
    369a:	08 95       	ret

0000369c <__divmodhi4>:
    369c:	97 fb       	bst	r25, 7
    369e:	09 2e       	mov	r0, r25
    36a0:	07 26       	eor	r0, r23
    36a2:	0a d0       	rcall	.+20     	; 0x36b8 <__divmodhi4_neg1>
    36a4:	77 fd       	sbrc	r23, 7
    36a6:	04 d0       	rcall	.+8      	; 0x36b0 <__divmodhi4_neg2>
    36a8:	e5 df       	rcall	.-54     	; 0x3674 <__udivmodhi4>
    36aa:	06 d0       	rcall	.+12     	; 0x36b8 <__divmodhi4_neg1>
    36ac:	00 20       	and	r0, r0
    36ae:	1a f4       	brpl	.+6      	; 0x36b6 <__divmodhi4_exit>

000036b0 <__divmodhi4_neg2>:
    36b0:	70 95       	com	r23
    36b2:	61 95       	neg	r22
    36b4:	7f 4f       	sbci	r23, 0xFF	; 255

000036b6 <__divmodhi4_exit>:
    36b6:	08 95       	ret

000036b8 <__divmodhi4_neg1>:
    36b8:	f6 f7       	brtc	.-4      	; 0x36b6 <__divmodhi4_exit>
    36ba:	90 95       	com	r25
    36bc:	81 95       	neg	r24
    36be:	9f 4f       	sbci	r25, 0xFF	; 255
    36c0:	08 95       	ret

000036c2 <__udivmodsi4>:
    36c2:	a1 e2       	ldi	r26, 0x21	; 33
    36c4:	1a 2e       	mov	r1, r26
    36c6:	aa 1b       	sub	r26, r26
    36c8:	bb 1b       	sub	r27, r27
    36ca:	fd 01       	movw	r30, r26
    36cc:	0d c0       	rjmp	.+26     	; 0x36e8 <__udivmodsi4_ep>

000036ce <__udivmodsi4_loop>:
    36ce:	aa 1f       	adc	r26, r26
    36d0:	bb 1f       	adc	r27, r27
    36d2:	ee 1f       	adc	r30, r30
    36d4:	ff 1f       	adc	r31, r31
    36d6:	a2 17       	cp	r26, r18
    36d8:	b3 07       	cpc	r27, r19
    36da:	e4 07       	cpc	r30, r20
    36dc:	f5 07       	cpc	r31, r21
    36de:	20 f0       	brcs	.+8      	; 0x36e8 <__udivmodsi4_ep>
    36e0:	a2 1b       	sub	r26, r18
    36e2:	b3 0b       	sbc	r27, r19
    36e4:	e4 0b       	sbc	r30, r20
    36e6:	f5 0b       	sbc	r31, r21

000036e8 <__udivmodsi4_ep>:
    36e8:	66 1f       	adc	r22, r22
    36ea:	77 1f       	adc	r23, r23
    36ec:	88 1f       	adc	r24, r24
    36ee:	99 1f       	adc	r25, r25
    36f0:	1a 94       	dec	r1
    36f2:	69 f7       	brne	.-38     	; 0x36ce <__udivmodsi4_loop>
    36f4:	60 95       	com	r22
    36f6:	70 95       	com	r23
    36f8:	80 95       	com	r24
    36fa:	90 95       	com	r25
    36fc:	9b 01       	movw	r18, r22
    36fe:	ac 01       	movw	r20, r24
    3700:	bd 01       	movw	r22, r26
    3702:	cf 01       	movw	r24, r30
    3704:	08 95       	ret

00003706 <__divmodsi4>:
    3706:	97 fb       	bst	r25, 7
    3708:	09 2e       	mov	r0, r25
    370a:	05 26       	eor	r0, r21
    370c:	0e d0       	rcall	.+28     	; 0x372a <__divmodsi4_neg1>
    370e:	57 fd       	sbrc	r21, 7
    3710:	04 d0       	rcall	.+8      	; 0x371a <__divmodsi4_neg2>
    3712:	d7 df       	rcall	.-82     	; 0x36c2 <__udivmodsi4>
    3714:	0a d0       	rcall	.+20     	; 0x372a <__divmodsi4_neg1>
    3716:	00 1c       	adc	r0, r0
    3718:	38 f4       	brcc	.+14     	; 0x3728 <__divmodsi4_exit>

0000371a <__divmodsi4_neg2>:
    371a:	50 95       	com	r21
    371c:	40 95       	com	r20
    371e:	30 95       	com	r19
    3720:	21 95       	neg	r18
    3722:	3f 4f       	sbci	r19, 0xFF	; 255
    3724:	4f 4f       	sbci	r20, 0xFF	; 255
    3726:	5f 4f       	sbci	r21, 0xFF	; 255

00003728 <__divmodsi4_exit>:
    3728:	08 95       	ret

0000372a <__divmodsi4_neg1>:
    372a:	f6 f7       	brtc	.-4      	; 0x3728 <__divmodsi4_exit>
    372c:	90 95       	com	r25
    372e:	80 95       	com	r24
    3730:	70 95       	com	r23
    3732:	61 95       	neg	r22
    3734:	7f 4f       	sbci	r23, 0xFF	; 255
    3736:	8f 4f       	sbci	r24, 0xFF	; 255
    3738:	9f 4f       	sbci	r25, 0xFF	; 255
    373a:	08 95       	ret

0000373c <_exit>:
    373c:	ff cf       	rjmp	.-2      	; 0x373c <_exit>
